
auto_mangal.elf:     file format elf32-littlearm

Sections:
Idx Name          Size      VMA       LMA       File off  Algn
  0 .isr_vector   0000010c  08000000  08000000  00001000  2**0
                  CONTENTS, ALLOC, LOAD, READONLY, DATA
  1 .text         00004058  08000110  08000110  00001110  2**4
                  CONTENTS, ALLOC, LOAD, READONLY, CODE
  2 .rodata       00001938  08004168  08004168  00005168  2**2
                  CONTENTS, ALLOC, LOAD, READONLY, DATA
  3 .ARM.extab    00000000  08005aa0  08005aa0  00007068  2**0
                  CONTENTS
  4 .ARM          00000000  08005aa0  08005aa0  00007068  2**0
                  CONTENTS
  5 .preinit_array 00000000  08005aa0  08005aa0  00007068  2**0
                  CONTENTS, ALLOC, LOAD, DATA
  6 .init_array   00000004  08005aa0  08005aa0  00006aa0  2**2
                  CONTENTS, ALLOC, LOAD, READONLY, DATA
  7 .fini_array   00000004  08005aa4  08005aa4  00006aa4  2**2
                  CONTENTS, ALLOC, LOAD, READONLY, DATA
  8 .data         00000068  20000000  08005aa8  00007000  2**2
                  CONTENTS, ALLOC, LOAD, DATA
  9 .bss          00001b08  20000068  08005b10  00007068  2**2
                  ALLOC
 10 ._user_heap_stack 00000600  20001b70  08005b10  00007b70  2**0
                  ALLOC
 11 .ARM.attributes 00000029  00000000  00000000  00007068  2**0
                  CONTENTS, READONLY
 12 .debug_info   00014cdd  00000000  00000000  00007091  2**0
                  CONTENTS, READONLY, DEBUGGING, OCTETS
 13 .debug_abbrev 00003762  00000000  00000000  0001bd6e  2**0
                  CONTENTS, READONLY, DEBUGGING, OCTETS
 14 .debug_aranges 00000c88  00000000  00000000  0001f4d0  2**3
                  CONTENTS, READONLY, DEBUGGING, OCTETS
 15 .debug_rnglists 00000f55  00000000  00000000  00020158  2**0
                  CONTENTS, READONLY, DEBUGGING, OCTETS
 16 .debug_macro  00018a9a  00000000  00000000  000210ad  2**0
                  CONTENTS, READONLY, DEBUGGING, OCTETS
 17 .debug_line   000168d8  00000000  00000000  00039b47  2**0
                  CONTENTS, READONLY, DEBUGGING, OCTETS
 18 .debug_str    00089781  00000000  00000000  0005041f  2**0
                  CONTENTS, READONLY, DEBUGGING, OCTETS
 19 .comment      00000043  00000000  00000000  000d9ba0  2**0
                  CONTENTS, READONLY
 20 .debug_frame  000028a8  00000000  00000000  000d9be4  2**2
                  CONTENTS, READONLY, DEBUGGING, OCTETS
 21 .debug_loclists 000071f3  00000000  00000000  000dc48c  2**0
                  CONTENTS, READONLY, DEBUGGING, OCTETS
 22 .debug_line_str 00000064  00000000  00000000  000e367f  2**0
                  CONTENTS, READONLY, DEBUGGING, OCTETS

Disassembly of section .text:

08000110 <__do_global_dtors_aux>:
 8000110:	b510      	push	{r4, lr}
 8000112:	4c05      	ldr	r4, [pc, #20]	@ (8000128 <__do_global_dtors_aux+0x18>)
 8000114:	7823      	ldrb	r3, [r4, #0]
 8000116:	b933      	cbnz	r3, 8000126 <__do_global_dtors_aux+0x16>
 8000118:	4b04      	ldr	r3, [pc, #16]	@ (800012c <__do_global_dtors_aux+0x1c>)
 800011a:	b113      	cbz	r3, 8000122 <__do_global_dtors_aux+0x12>
 800011c:	4804      	ldr	r0, [pc, #16]	@ (8000130 <__do_global_dtors_aux+0x20>)
 800011e:	f3af 8000 	nop.w
 8000122:	2301      	movs	r3, #1
 8000124:	7023      	strb	r3, [r4, #0]
 8000126:	bd10      	pop	{r4, pc}
 8000128:	20000068 	.word	0x20000068
 800012c:	00000000 	.word	0x00000000
 8000130:	08004150 	.word	0x08004150

08000134 <frame_dummy>:
 8000134:	b508      	push	{r3, lr}
 8000136:	4b03      	ldr	r3, [pc, #12]	@ (8000144 <frame_dummy+0x10>)
 8000138:	b11b      	cbz	r3, 8000142 <frame_dummy+0xe>
 800013a:	4903      	ldr	r1, [pc, #12]	@ (8000148 <frame_dummy+0x14>)
 800013c:	4803      	ldr	r0, [pc, #12]	@ (800014c <frame_dummy+0x18>)
 800013e:	f3af 8000 	nop.w
 8000142:	bd08      	pop	{r3, pc}
 8000144:	00000000 	.word	0x00000000
 8000148:	2000006c 	.word	0x2000006c
 800014c:	08004150 	.word	0x08004150

08000150 <vApplicationGetIdleTaskMemory>:
static StaticTask_t xIdleTaskTCBBuffer;
static StackType_t xIdleStack[configMINIMAL_STACK_SIZE];

void vApplicationGetIdleTaskMemory( StaticTask_t **ppxIdleTaskTCBBuffer, StackType_t **ppxIdleTaskStackBuffer, uint32_t *pulIdleTaskStackSize )
{
  *ppxIdleTaskTCBBuffer = &xIdleTaskTCBBuffer;
 8000150:	4b03      	ldr	r3, [pc, #12]	@ (8000160 <vApplicationGetIdleTaskMemory+0x10>)
 8000152:	6003      	str	r3, [r0, #0]
  *ppxIdleTaskStackBuffer = &xIdleStack[0];
 8000154:	4b03      	ldr	r3, [pc, #12]	@ (8000164 <vApplicationGetIdleTaskMemory+0x14>)
 8000156:	600b      	str	r3, [r1, #0]
  *pulIdleTaskStackSize = configMINIMAL_STACK_SIZE;
 8000158:	2380      	movs	r3, #128	@ 0x80
 800015a:	6013      	str	r3, [r2, #0]
  /* place for user code */
}
 800015c:	4770      	bx	lr
 800015e:	bf00      	nop
 8000160:	200006d8 	.word	0x200006d8
 8000164:	200004d8 	.word	0x200004d8

08000168 <vApplicationGetTimerTaskMemory>:
static StaticTask_t xTimerTaskTCBBuffer;
static StackType_t xTimerStack[configTIMER_TASK_STACK_DEPTH];

void vApplicationGetTimerTaskMemory( StaticTask_t **ppxTimerTaskTCBBuffer, StackType_t **ppxTimerTaskStackBuffer, uint32_t *pulTimerTaskStackSize )
{
  *ppxTimerTaskTCBBuffer = &xTimerTaskTCBBuffer;
 8000168:	4b03      	ldr	r3, [pc, #12]	@ (8000178 <vApplicationGetTimerTaskMemory+0x10>)
 800016a:	6003      	str	r3, [r0, #0]
  *ppxTimerTaskStackBuffer = &xTimerStack[0];
 800016c:	4b03      	ldr	r3, [pc, #12]	@ (800017c <vApplicationGetTimerTaskMemory+0x14>)
 800016e:	600b      	str	r3, [r1, #0]
  *pulTimerTaskStackSize = configTIMER_TASK_STACK_DEPTH;
 8000170:	f44f 7380 	mov.w	r3, #256	@ 0x100
 8000174:	6013      	str	r3, [r2, #0]
  /* place for user code */
}
 8000176:	4770      	bx	lr
 8000178:	20000484 	.word	0x20000484
 800017c:	20000084 	.word	0x20000084

08000180 <StartReadKeyTask>:
/* USER CODE END Header_StartReadKeyTask */
void StartReadKeyTask(void const * argument)
{
  /* USER CODE BEGIN 5 */
  #define SCREEN_TIMEOUT 30000
  osTimerStart(screenTimeoutTimerHandle, SCREEN_TIMEOUT);
 8000180:	4c55      	ldr	r4, [pc, #340]	@ (80002d8 <StartReadKeyTask+0x158>)
{
 8000182:	b580      	push	{r7, lr}
  osTimerStart(screenTimeoutTimerHandle, SCREEN_TIMEOUT);
 8000184:	f247 5130 	movw	r1, #30000	@ 0x7530
 8000188:	6820      	ldr	r0, [r4, #0]
 800018a:	f001 fd7f 	bl	8001c8c <osTimerStart>
  /* Infinite loop */
  for(;;)
  {

	if (HAL_GPIO_ReadPin(btn_bottom_GPIO_Port, btn_bottom_Pin) == 0) {
 800018e:	4f53      	ldr	r7, [pc, #332]	@ (80002dc <StartReadKeyTask+0x15c>)
		    osDelay(1);
	    }
	    osTimerStart(screenTimeoutTimerHandle, SCREEN_TIMEOUT);
	}
	else if (HAL_GPIO_ReadPin(btn_ok_GPIO_Port, btn_ok_Pin) == 0) {
	    osTimerStart(cancelButtonHandle, 1000);
 8000190:	4e53      	ldr	r6, [pc, #332]	@ (80002e0 <StartReadKeyTask+0x160>)
	if (HAL_GPIO_ReadPin(btn_bottom_GPIO_Port, btn_bottom_Pin) == 0) {
 8000192:	f44f 4100 	mov.w	r1, #32768	@ 0x8000
 8000196:	4638      	mov	r0, r7
 8000198:	f001 f830 	bl	80011fc <HAL_GPIO_ReadPin>
 800019c:	4605      	mov	r5, r0
 800019e:	b9e8      	cbnz	r0, 80001dc <StartReadKeyTask+0x5c>
	    if (ssd1306_GetDisplayOn()==0) osMessagePut(buttonPressedQueueHandle, 6, 100); else osMessagePut(buttonPressedQueueHandle, 0, 100);
 80001a0:	f000 fde6 	bl	8000d70 <ssd1306_GetDisplayOn>
 80001a4:	2264      	movs	r2, #100	@ 0x64
 80001a6:	4b4f      	ldr	r3, [pc, #316]	@ (80002e4 <StartReadKeyTask+0x164>)
 80001a8:	b990      	cbnz	r0, 80001d0 <StartReadKeyTask+0x50>
 80001aa:	2106      	movs	r1, #6
 80001ac:	6818      	ldr	r0, [r3, #0]
 80001ae:	f001 fdcf 	bl	8001d50 <osMessagePut>
	    while(HAL_GPIO_ReadPin(btn_bottom_GPIO_Port, btn_bottom_Pin) == 0)
 80001b2:	f44f 4100 	mov.w	r1, #32768	@ 0x8000
 80001b6:	4638      	mov	r0, r7
 80001b8:	f001 f820 	bl	80011fc <HAL_GPIO_ReadPin>
 80001bc:	b150      	cbz	r0, 80001d4 <StartReadKeyTask+0x54>
	    osTimerStart(screenTimeoutTimerHandle, SCREEN_TIMEOUT);
 80001be:	f247 5130 	movw	r1, #30000	@ 0x7530
 80001c2:	6820      	ldr	r0, [r4, #0]
 80001c4:	f001 fd62 	bl	8001c8c <osTimerStart>
		//short press
	    }
	    osTimerStop(cancelButtonHandle);
	}

    osDelay(10);
 80001c8:	200a      	movs	r0, #10
 80001ca:	f001 fd3e 	bl	8001c4a <osDelay>
	if (HAL_GPIO_ReadPin(btn_bottom_GPIO_Port, btn_bottom_Pin) == 0) {
 80001ce:	e7e0      	b.n	8000192 <StartReadKeyTask+0x12>
	    if (ssd1306_GetDisplayOn()==0) osMessagePut(buttonPressedQueueHandle, 6, 100); else osMessagePut(buttonPressedQueueHandle, 0, 100);
 80001d0:	4629      	mov	r1, r5
 80001d2:	e7eb      	b.n	80001ac <StartReadKeyTask+0x2c>
		    osDelay(1);
 80001d4:	2001      	movs	r0, #1
 80001d6:	f001 fd38 	bl	8001c4a <osDelay>
 80001da:	e7ea      	b.n	80001b2 <StartReadKeyTask+0x32>
	else if (HAL_GPIO_ReadPin(btn_top_GPIO_Port, btn_top_Pin) == 0) {
 80001dc:	2180      	movs	r1, #128	@ 0x80
 80001de:	4842      	ldr	r0, [pc, #264]	@ (80002e8 <StartReadKeyTask+0x168>)
 80001e0:	f001 f80c 	bl	80011fc <HAL_GPIO_ReadPin>
 80001e4:	b9a8      	cbnz	r0, 8000212 <StartReadKeyTask+0x92>
	    if (ssd1306_GetDisplayOn()==0) osMessagePut(buttonPressedQueueHandle, 6, 100); else osMessagePut(buttonPressedQueueHandle, 1, 100);
 80001e6:	f000 fdc3 	bl	8000d70 <ssd1306_GetDisplayOn>
 80001ea:	2264      	movs	r2, #100	@ 0x64
 80001ec:	4b3d      	ldr	r3, [pc, #244]	@ (80002e4 <StartReadKeyTask+0x164>)
 80001ee:	b970      	cbnz	r0, 800020e <StartReadKeyTask+0x8e>
 80001f0:	2106      	movs	r1, #6
 80001f2:	6818      	ldr	r0, [r3, #0]
 80001f4:	f001 fdac 	bl	8001d50 <osMessagePut>
	    while(HAL_GPIO_ReadPin(btn_top_GPIO_Port, btn_top_Pin) == 0)
 80001f8:	4d3b      	ldr	r5, [pc, #236]	@ (80002e8 <StartReadKeyTask+0x168>)
 80001fa:	2180      	movs	r1, #128	@ 0x80
 80001fc:	4628      	mov	r0, r5
 80001fe:	f000 fffd 	bl	80011fc <HAL_GPIO_ReadPin>
 8000202:	2800      	cmp	r0, #0
 8000204:	d1db      	bne.n	80001be <StartReadKeyTask+0x3e>
		    osDelay(1);
 8000206:	2001      	movs	r0, #1
 8000208:	f001 fd1f 	bl	8001c4a <osDelay>
 800020c:	e7f5      	b.n	80001fa <StartReadKeyTask+0x7a>
	    if (ssd1306_GetDisplayOn()==0) osMessagePut(buttonPressedQueueHandle, 6, 100); else osMessagePut(buttonPressedQueueHandle, 1, 100);
 800020e:	2101      	movs	r1, #1
 8000210:	e7ef      	b.n	80001f2 <StartReadKeyTask+0x72>
	else if (HAL_GPIO_ReadPin(btn_left_GPIO_Port, btn_left_Pin) == 0) {
 8000212:	2110      	movs	r1, #16
 8000214:	4834      	ldr	r0, [pc, #208]	@ (80002e8 <StartReadKeyTask+0x168>)
 8000216:	f000 fff1 	bl	80011fc <HAL_GPIO_ReadPin>
 800021a:	b9a8      	cbnz	r0, 8000248 <StartReadKeyTask+0xc8>
	    if (ssd1306_GetDisplayOn()==0) osMessagePut(buttonPressedQueueHandle, 6, 100); else osMessagePut(buttonPressedQueueHandle, 2, 100);
 800021c:	f000 fda8 	bl	8000d70 <ssd1306_GetDisplayOn>
 8000220:	2264      	movs	r2, #100	@ 0x64
 8000222:	4b30      	ldr	r3, [pc, #192]	@ (80002e4 <StartReadKeyTask+0x164>)
 8000224:	b970      	cbnz	r0, 8000244 <StartReadKeyTask+0xc4>
 8000226:	2106      	movs	r1, #6
 8000228:	6818      	ldr	r0, [r3, #0]
 800022a:	f001 fd91 	bl	8001d50 <osMessagePut>
	    while(HAL_GPIO_ReadPin(btn_left_GPIO_Port, btn_left_Pin) == 0)
 800022e:	4d2e      	ldr	r5, [pc, #184]	@ (80002e8 <StartReadKeyTask+0x168>)
 8000230:	2110      	movs	r1, #16
 8000232:	4628      	mov	r0, r5
 8000234:	f000 ffe2 	bl	80011fc <HAL_GPIO_ReadPin>
 8000238:	2800      	cmp	r0, #0
 800023a:	d1c0      	bne.n	80001be <StartReadKeyTask+0x3e>
		    osDelay(1);
 800023c:	2001      	movs	r0, #1
 800023e:	f001 fd04 	bl	8001c4a <osDelay>
 8000242:	e7f5      	b.n	8000230 <StartReadKeyTask+0xb0>
	    if (ssd1306_GetDisplayOn()==0) osMessagePut(buttonPressedQueueHandle, 6, 100); else osMessagePut(buttonPressedQueueHandle, 2, 100);
 8000244:	2102      	movs	r1, #2
 8000246:	e7ef      	b.n	8000228 <StartReadKeyTask+0xa8>
	else if (HAL_GPIO_ReadPin(btn_right_GPIO_Port, btn_right_Pin) == 0) {
 8000248:	2140      	movs	r1, #64	@ 0x40
 800024a:	4827      	ldr	r0, [pc, #156]	@ (80002e8 <StartReadKeyTask+0x168>)
 800024c:	f000 ffd6 	bl	80011fc <HAL_GPIO_ReadPin>
 8000250:	b9a8      	cbnz	r0, 800027e <StartReadKeyTask+0xfe>
	    if (ssd1306_GetDisplayOn()==0) osMessagePut(buttonPressedQueueHandle, 6, 100); else osMessagePut(buttonPressedQueueHandle, 3, 100);
 8000252:	f000 fd8d 	bl	8000d70 <ssd1306_GetDisplayOn>
 8000256:	2264      	movs	r2, #100	@ 0x64
 8000258:	4b22      	ldr	r3, [pc, #136]	@ (80002e4 <StartReadKeyTask+0x164>)
 800025a:	b970      	cbnz	r0, 800027a <StartReadKeyTask+0xfa>
 800025c:	2106      	movs	r1, #6
 800025e:	6818      	ldr	r0, [r3, #0]
 8000260:	f001 fd76 	bl	8001d50 <osMessagePut>
	    while(HAL_GPIO_ReadPin(btn_right_GPIO_Port, btn_right_Pin) == 0)
 8000264:	4d20      	ldr	r5, [pc, #128]	@ (80002e8 <StartReadKeyTask+0x168>)
 8000266:	2140      	movs	r1, #64	@ 0x40
 8000268:	4628      	mov	r0, r5
 800026a:	f000 ffc7 	bl	80011fc <HAL_GPIO_ReadPin>
 800026e:	2800      	cmp	r0, #0
 8000270:	d1a5      	bne.n	80001be <StartReadKeyTask+0x3e>
		    osDelay(1);
 8000272:	2001      	movs	r0, #1
 8000274:	f001 fce9 	bl	8001c4a <osDelay>
 8000278:	e7f5      	b.n	8000266 <StartReadKeyTask+0xe6>
	    if (ssd1306_GetDisplayOn()==0) osMessagePut(buttonPressedQueueHandle, 6, 100); else osMessagePut(buttonPressedQueueHandle, 3, 100);
 800027a:	2103      	movs	r1, #3
 800027c:	e7ef      	b.n	800025e <StartReadKeyTask+0xde>
	else if (HAL_GPIO_ReadPin(btn_ok_GPIO_Port, btn_ok_Pin) == 0) {
 800027e:	2120      	movs	r1, #32
 8000280:	4819      	ldr	r0, [pc, #100]	@ (80002e8 <StartReadKeyTask+0x168>)
 8000282:	f000 ffbb 	bl	80011fc <HAL_GPIO_ReadPin>
 8000286:	2800      	cmp	r0, #0
 8000288:	d19e      	bne.n	80001c8 <StartReadKeyTask+0x48>
	    osTimerStart(cancelButtonHandle, 1000);
 800028a:	f44f 717a 	mov.w	r1, #1000	@ 0x3e8
 800028e:	6830      	ldr	r0, [r6, #0]
 8000290:	f001 fcfc 	bl	8001c8c <osTimerStart>
	    while(HAL_GPIO_ReadPin(btn_ok_GPIO_Port, btn_ok_Pin) == 0)
 8000294:	4d14      	ldr	r5, [pc, #80]	@ (80002e8 <StartReadKeyTask+0x168>)
 8000296:	2120      	movs	r1, #32
 8000298:	4628      	mov	r0, r5
 800029a:	f000 ffaf 	bl	80011fc <HAL_GPIO_ReadPin>
 800029e:	b1a8      	cbz	r0, 80002cc <StartReadKeyTask+0x14c>
	    osTimerStart(screenTimeoutTimerHandle, SCREEN_TIMEOUT);
 80002a0:	f247 5130 	movw	r1, #30000	@ 0x7530
 80002a4:	6820      	ldr	r0, [r4, #0]
 80002a6:	f001 fcf1 	bl	8001c8c <osTimerStart>
	    if (xTimerIsTimerActive(cancelButtonHandle) != pdFALSE) {
 80002aa:	6830      	ldr	r0, [r6, #0]
 80002ac:	f003 f83e 	bl	800332c <xTimerIsTimerActive>
 80002b0:	b140      	cbz	r0, 80002c4 <StartReadKeyTask+0x144>
		if (ssd1306_GetDisplayOn()==0) osMessagePut(buttonPressedQueueHandle, 6, 100); else osMessagePut(buttonPressedQueueHandle, 4, 100);
 80002b2:	f000 fd5d 	bl	8000d70 <ssd1306_GetDisplayOn>
 80002b6:	2264      	movs	r2, #100	@ 0x64
 80002b8:	4b0a      	ldr	r3, [pc, #40]	@ (80002e4 <StartReadKeyTask+0x164>)
 80002ba:	b958      	cbnz	r0, 80002d4 <StartReadKeyTask+0x154>
 80002bc:	2106      	movs	r1, #6
 80002be:	6818      	ldr	r0, [r3, #0]
 80002c0:	f001 fd46 	bl	8001d50 <osMessagePut>
	    osTimerStop(cancelButtonHandle);
 80002c4:	6830      	ldr	r0, [r6, #0]
 80002c6:	f001 fd0a 	bl	8001cde <osTimerStop>
 80002ca:	e77d      	b.n	80001c8 <StartReadKeyTask+0x48>
		    osDelay(1);
 80002cc:	2001      	movs	r0, #1
 80002ce:	f001 fcbc 	bl	8001c4a <osDelay>
 80002d2:	e7e0      	b.n	8000296 <StartReadKeyTask+0x116>
		if (ssd1306_GetDisplayOn()==0) osMessagePut(buttonPressedQueueHandle, 6, 100); else osMessagePut(buttonPressedQueueHandle, 4, 100);
 80002d4:	2104      	movs	r1, #4
 80002d6:	e7f2      	b.n	80002be <StartReadKeyTask+0x13e>
 80002d8:	2000072c 	.word	0x2000072c
 80002dc:	40010800 	.word	0x40010800
 80002e0:	20000730 	.word	0x20000730
 80002e4:	20000734 	.word	0x20000734
 80002e8:	40010c00 	.word	0x40010c00

080002ec <StartGuiTask>:
{
  /* USER CODE BEGIN StartGuiTask */
  osEvent btnEvent;
  uint8_t guiState = 0;
  uint8_t selectedMode = 0;
  uint8_t intermittentModeMenuPointer = 0;
 80002ec:	2300      	movs	r3, #0
{
 80002ee:	e92d 4ff0 	stmdb	sp!, {r4, r5, r6, r7, r8, r9, sl, fp, lr}
  uint8_t speed = 5;
  uint8_t sleep = 60;
  uint8_t corner = 45;
 80002f2:	272d      	movs	r7, #45	@ 0x2d
  uint8_t sleep = 60;
 80002f4:	263c      	movs	r6, #60	@ 0x3c
  uint8_t speed = 5;
 80002f6:	f04f 0a05 	mov.w	sl, #5
  uint8_t guiState = 0;
 80002fa:	461d      	mov	r5, r3
{
 80002fc:	b091      	sub	sp, #68	@ 0x44
	  } else if (btnEvent.value.v == 5) { //cancel
		  HAL_GPIO_WritePin(buzzer_GPIO_Port, buzzer_Pin, 1);
		  osDelay(250);
		  HAL_GPIO_WritePin(buzzer_GPIO_Port, buzzer_Pin, 0);
	  } else if (btnEvent.value.v == 6) { //cancel
		  HAL_GPIO_WritePin(buzzer_GPIO_Port, buzzer_Pin, 1);
 80002fe:	f8df 829c 	ldr.w	r8, [pc, #668]	@ 800059c <StartGuiTask+0x2b0>
	  ssd1306_WriteString("Постоянный реж.", RuFont_7x13, Black);
 8000302:	4ca7      	ldr	r4, [pc, #668]	@ (80005a0 <StartGuiTask+0x2b4>)
  uint8_t intermittentModeMenuPointer = 0;
 8000304:	9302      	str	r3, [sp, #8]
  uint8_t selectedMode = 0;
 8000306:	9304      	str	r3, [sp, #16]
      btnEvent = osMessageGet(buttonPressedQueueHandle, 100);
 8000308:	4ba6      	ldr	r3, [pc, #664]	@ (80005a4 <StartGuiTask+0x2b8>)
 800030a:	2264      	movs	r2, #100	@ 0x64
 800030c:	6819      	ldr	r1, [r3, #0]
 800030e:	a80d      	add	r0, sp, #52	@ 0x34
 8000310:	f001 fd47 	bl	8001da2 <osMessageGet>
 8000314:	9b0d      	ldr	r3, [sp, #52]	@ 0x34
      switch (guiState) {
 8000316:	2d01      	cmp	r5, #1
      btnEvent = osMessageGet(buttonPressedQueueHandle, 100);
 8000318:	f8dd b038 	ldr.w	fp, [sp, #56]	@ 0x38
 800031c:	9303      	str	r3, [sp, #12]
      switch (guiState) {
 800031e:	d06b      	beq.n	80003f8 <StartGuiTask+0x10c>
 8000320:	2d02      	cmp	r5, #2
 8000322:	f000 80b4 	beq.w	800048e <StartGuiTask+0x1a2>
 8000326:	2d00      	cmp	r5, #0
 8000328:	d157      	bne.n	80003da <StartGuiTask+0xee>
	  ssd1306_DrawRectangle(0, 0, 127, 63, White);
 800032a:	f04f 0901 	mov.w	r9, #1
	  ssd1306_Fill(Black);
 800032e:	4628      	mov	r0, r5
 8000330:	f000 fb4e 	bl	80009d0 <ssd1306_Fill>
	  ssd1306_DrawRectangle(0, 0, 127, 63, White);
 8000334:	233f      	movs	r3, #63	@ 0x3f
 8000336:	227f      	movs	r2, #127	@ 0x7f
 8000338:	4629      	mov	r1, r5
 800033a:	4628      	mov	r0, r5
 800033c:	f8cd 9000 	str.w	r9, [sp]
 8000340:	f000 fc38 	bl	8000bb4 <ssd1306_DrawRectangle>
	  ssd1306_SetCursor(1,1);
 8000344:	4649      	mov	r1, r9
 8000346:	4648      	mov	r0, r9
 8000348:	f000 fbe8 	bl	8000b1c <ssd1306_SetCursor>
	  ssd1306_WriteString("Выбор режима", RuFont_7x13, Black);
 800034c:	e894 0006 	ldmia.w	r4, {r1, r2}
 8000350:	462b      	mov	r3, r5
 8000352:	4895      	ldr	r0, [pc, #596]	@ (80005a8 <StartGuiTask+0x2bc>)
 8000354:	f000 fbce 	bl	8000af4 <ssd1306_WriteString>
	  if (selectedMode == 0) {
 8000358:	9b04      	ldr	r3, [sp, #16]
	    ssd1306_SetCursor(4,16);
 800035a:	2110      	movs	r1, #16
 800035c:	2004      	movs	r0, #4
	  if (selectedMode == 0) {
 800035e:	bb3b      	cbnz	r3, 80003b0 <StartGuiTask+0xc4>
	    ssd1306_SetCursor(4,16);
 8000360:	f000 fbdc 	bl	8000b1c <ssd1306_SetCursor>
	    ssd1306_WriteString("> Постоянный", RuFont_7x13, White);
 8000364:	e894 0006 	ldmia.w	r4, {r1, r2}
 8000368:	464b      	mov	r3, r9
 800036a:	4890      	ldr	r0, [pc, #576]	@ (80005ac <StartGuiTask+0x2c0>)
 800036c:	f000 fbc2 	bl	8000af4 <ssd1306_WriteString>
	    ssd1306_SetCursor(4,30);
 8000370:	211e      	movs	r1, #30
 8000372:	2004      	movs	r0, #4
 8000374:	f000 fbd2 	bl	8000b1c <ssd1306_SetCursor>
	    ssd1306_WriteString("  Прерывистый", RuFont_7x13, White);
 8000378:	e894 0006 	ldmia.w	r4, {r1, r2}
 800037c:	464b      	mov	r3, r9
 800037e:	488c      	ldr	r0, [pc, #560]	@ (80005b0 <StartGuiTask+0x2c4>)
	    ssd1306_WriteString("> Прерывистый", RuFont_7x13, White);
 8000380:	f000 fbb8 	bl	8000af4 <ssd1306_WriteString>
	  if (btnEvent.status == osEventMessage)
 8000384:	9b03      	ldr	r3, [sp, #12]
 8000386:	2b10      	cmp	r3, #16
 8000388:	d126      	bne.n	80003d8 <StartGuiTask+0xec>
	    if (btnEvent.value.v == 0 || btnEvent.value.v == 1)
 800038a:	f1bb 0f01 	cmp.w	fp, #1
 800038e:	d820      	bhi.n	80003d2 <StartGuiTask+0xe6>
	      selectedMode = !selectedMode;
 8000390:	9b04      	ldr	r3, [sp, #16]
 8000392:	f083 0301 	eor.w	r3, r3, #1
 8000396:	9304      	str	r3, [sp, #16]
	  if (btnEvent.value.v == 0) { //bottom
 8000398:	f1bb 0f06 	cmp.w	fp, #6
 800039c:	d820      	bhi.n	80003e0 <StartGuiTask+0xf4>
 800039e:	e8df f01b 	tbh	[pc, fp, lsl #1]
 80003a2:	0197      	.short	0x0197
 80003a4:	01970197 	.word	0x01970197
 80003a8:	01870197 	.word	0x01870197
 80003ac:	01ac01a5 	.word	0x01ac01a5
	    ssd1306_SetCursor(4,16);
 80003b0:	f000 fbb4 	bl	8000b1c <ssd1306_SetCursor>
	    ssd1306_WriteString("  Постоянный", RuFont_7x13, White);
 80003b4:	e894 0006 	ldmia.w	r4, {r1, r2}
 80003b8:	464b      	mov	r3, r9
 80003ba:	487e      	ldr	r0, [pc, #504]	@ (80005b4 <StartGuiTask+0x2c8>)
 80003bc:	f000 fb9a 	bl	8000af4 <ssd1306_WriteString>
	    ssd1306_SetCursor(4,30);
 80003c0:	211e      	movs	r1, #30
 80003c2:	2004      	movs	r0, #4
 80003c4:	f000 fbaa 	bl	8000b1c <ssd1306_SetCursor>
	    ssd1306_WriteString("> Прерывистый", RuFont_7x13, White);
 80003c8:	e894 0006 	ldmia.w	r4, {r1, r2}
 80003cc:	464b      	mov	r3, r9
 80003ce:	487a      	ldr	r0, [pc, #488]	@ (80005b8 <StartGuiTask+0x2cc>)
 80003d0:	e7d6      	b.n	8000380 <StartGuiTask+0x94>
	    } else if (btnEvent.value.v == 4)
 80003d2:	f1bb 0f04 	cmp.w	fp, #4
 80003d6:	d009      	beq.n	80003ec <StartGuiTask+0x100>
  uint8_t guiState = 0;
 80003d8:	2500      	movs	r5, #0
	if (btnEvent.status == osEventMessage)
 80003da:	9b03      	ldr	r3, [sp, #12]
 80003dc:	2b10      	cmp	r3, #16
 80003de:	d0db      	beq.n	8000398 <StartGuiTask+0xac>
		  ssd1306_SetDisplayOn(1);
	  }

	}

	ssd1306_UpdateScreen();
 80003e0:	f000 fb02 	bl	80009e8 <ssd1306_UpdateScreen>
	osDelay(10);//
 80003e4:	200a      	movs	r0, #10
 80003e6:	f001 fc30 	bl	8001c4a <osDelay>
      btnEvent = osMessageGet(buttonPressedQueueHandle, 100);
 80003ea:	e78d      	b.n	8000308 <StartGuiTask+0x1c>
		  guiState = 1;
 80003ec:	9b04      	ldr	r3, [sp, #16]
 80003ee:	2b00      	cmp	r3, #0
 80003f0:	bf14      	ite	ne
 80003f2:	2502      	movne	r5, #2
 80003f4:	2501      	moveq	r5, #1
 80003f6:	e7cf      	b.n	8000398 <StartGuiTask+0xac>
	  ssd1306_Fill(Black);
 80003f8:	2000      	movs	r0, #0
 80003fa:	f000 fae9 	bl	80009d0 <ssd1306_Fill>
	  ssd1306_DrawRectangle(0, 0, 127, 63, White);
 80003fe:	2100      	movs	r1, #0
 8000400:	233f      	movs	r3, #63	@ 0x3f
 8000402:	227f      	movs	r2, #127	@ 0x7f
 8000404:	4608      	mov	r0, r1
 8000406:	9500      	str	r5, [sp, #0]
 8000408:	f000 fbd4 	bl	8000bb4 <ssd1306_DrawRectangle>
	  ssd1306_SetCursor(1,1);
 800040c:	4629      	mov	r1, r5
 800040e:	4628      	mov	r0, r5
 8000410:	f000 fb84 	bl	8000b1c <ssd1306_SetCursor>
	  ssd1306_WriteString("Постоянный реж.", RuFont_7x13, Black);
 8000414:	e894 0006 	ldmia.w	r4, {r1, r2}
 8000418:	2300      	movs	r3, #0
 800041a:	4868      	ldr	r0, [pc, #416]	@ (80005bc <StartGuiTask+0x2d0>)
 800041c:	f000 fb6a 	bl	8000af4 <ssd1306_WriteString>
	  ssd1306_SetCursor(4,16);
 8000420:	2110      	movs	r1, #16
 8000422:	2004      	movs	r0, #4
 8000424:	f000 fb7a 	bl	8000b1c <ssd1306_SetCursor>
	  ssd1306_WriteString("> Скорость: ", RuFont_7x13, White);
 8000428:	e894 0006 	ldmia.w	r4, {r1, r2}
 800042c:	462b      	mov	r3, r5
 800042e:	4864      	ldr	r0, [pc, #400]	@ (80005c0 <StartGuiTask+0x2d4>)
 8000430:	f000 fb60 	bl	8000af4 <ssd1306_WriteString>
	  ssd1306_SetCursor(88,16);
 8000434:	2110      	movs	r1, #16
 8000436:	2058      	movs	r0, #88	@ 0x58
 8000438:	f000 fb70 	bl	8000b1c <ssd1306_SetCursor>
	  sprintf(speedStr, "%d", speed);
 800043c:	4652      	mov	r2, sl
 800043e:	4961      	ldr	r1, [pc, #388]	@ (80005c4 <StartGuiTask+0x2d8>)
 8000440:	a80b      	add	r0, sp, #44	@ 0x2c
 8000442:	f003 f9d5 	bl	80037f0 <siprintf>
	  ssd1306_WriteString(speedStr, RuFont_7x13, White);
 8000446:	e894 0006 	ldmia.w	r4, {r1, r2}
 800044a:	462b      	mov	r3, r5
 800044c:	a80b      	add	r0, sp, #44	@ 0x2c
 800044e:	f000 fb51 	bl	8000af4 <ssd1306_WriteString>
	  if (btnEvent.status == osEventMessage)
 8000452:	9b03      	ldr	r3, [sp, #12]
 8000454:	2b10      	cmp	r3, #16
 8000456:	d1c3      	bne.n	80003e0 <StartGuiTask+0xf4>
	    if (btnEvent.value.v == 2)
 8000458:	f1bb 0f02 	cmp.w	fp, #2
 800045c:	d108      	bne.n	8000470 <StartGuiTask+0x184>
		if(speed == 1)
 800045e:	f1ba 0f01 	cmp.w	sl, #1
 8000462:	f000 811a 	beq.w	800069a <StartGuiTask+0x3ae>
		  speed--;
 8000466:	f10a 33ff 	add.w	r3, sl, #4294967295
		  speed++;
 800046a:	fa5f fa83 	uxtb.w	sl, r3
 800046e:	e793      	b.n	8000398 <StartGuiTask+0xac>
	    } else if ( btnEvent.value.v == 3)
 8000470:	f1bb 0f03 	cmp.w	fp, #3
 8000474:	d106      	bne.n	8000484 <StartGuiTask+0x198>
		if(speed == 10)
 8000476:	f1ba 0f0a 	cmp.w	sl, #10
 800047a:	f000 8111 	beq.w	80006a0 <StartGuiTask+0x3b4>
		  speed++;
 800047e:	f10a 0301 	add.w	r3, sl, #1
 8000482:	e7f2      	b.n	800046a <StartGuiTask+0x17e>
	      else if (btnEvent.value.v == 5)
 8000484:	f1bb 0505 	subs.w	r5, fp, #5
 8000488:	bf18      	it	ne
 800048a:	2501      	movne	r5, #1
 800048c:	e784      	b.n	8000398 <StartGuiTask+0xac>
	  ssd1306_Fill(Black);
 800048e:	2000      	movs	r0, #0
 8000490:	f000 fa9e 	bl	80009d0 <ssd1306_Fill>
	  ssd1306_DrawRectangle(0, 0, 127, 63, White);
 8000494:	2100      	movs	r1, #0
 8000496:	2301      	movs	r3, #1
 8000498:	227f      	movs	r2, #127	@ 0x7f
 800049a:	4608      	mov	r0, r1
 800049c:	9300      	str	r3, [sp, #0]
 800049e:	233f      	movs	r3, #63	@ 0x3f
 80004a0:	f000 fb88 	bl	8000bb4 <ssd1306_DrawRectangle>
	  ssd1306_SetCursor(1,1);
 80004a4:	2101      	movs	r1, #1
 80004a6:	4608      	mov	r0, r1
 80004a8:	f000 fb38 	bl	8000b1c <ssd1306_SetCursor>
	  ssd1306_WriteString("Прерывистый реж.", RuFont_7x13, Black);
 80004ac:	e894 0006 	ldmia.w	r4, {r1, r2}
 80004b0:	2300      	movs	r3, #0
 80004b2:	4845      	ldr	r0, [pc, #276]	@ (80005c8 <StartGuiTask+0x2dc>)
 80004b4:	f000 fb1e 	bl	8000af4 <ssd1306_WriteString>
	      uint8_t min = sleep / 60;
 80004b8:	233c      	movs	r3, #60	@ 0x3c
 80004ba:	fbb6 f9f3 	udiv	r9, r6, r3
	      sprintf(minStr, "%d", min);
 80004be:	fa5f f289 	uxtb.w	r2, r9
	      uint8_t sec = sleep % 60;
 80004c2:	fb03 6919 	mls	r9, r3, r9, r6
	  if(intermittentModeMenuPointer == 0)
 80004c6:	9b02      	ldr	r3, [sp, #8]
	      ssd1306_SetCursor(4,16);
 80004c8:	2110      	movs	r1, #16
 80004ca:	2004      	movs	r0, #4
	      sprintf(minStr, "%d", min);
 80004cc:	9205      	str	r2, [sp, #20]
	      uint8_t sec = sleep % 60;
 80004ce:	fa5f f989 	uxtb.w	r9, r9
	  if(intermittentModeMenuPointer == 0)
 80004d2:	2b00      	cmp	r3, #0
 80004d4:	d17e      	bne.n	80005d4 <StartGuiTask+0x2e8>
	      ssd1306_SetCursor(4,16);
 80004d6:	f000 fb21 	bl	8000b1c <ssd1306_SetCursor>
	      ssd1306_WriteString("> Задержка: ", RuFont_7x13, White);
 80004da:	e894 0006 	ldmia.w	r4, {r1, r2}
 80004de:	2301      	movs	r3, #1
 80004e0:	483a      	ldr	r0, [pc, #232]	@ (80005cc <StartGuiTask+0x2e0>)
 80004e2:	f000 fb07 	bl	8000af4 <ssd1306_WriteString>
	      ssd1306_SetCursor(88,16);
 80004e6:	2110      	movs	r1, #16
 80004e8:	2058      	movs	r0, #88	@ 0x58
 80004ea:	f000 fb17 	bl	8000b1c <ssd1306_SetCursor>
	      sprintf(minStr, "%d", min);
 80004ee:	9a05      	ldr	r2, [sp, #20]
 80004f0:	4934      	ldr	r1, [pc, #208]	@ (80005c4 <StartGuiTask+0x2d8>)
 80004f2:	a807      	add	r0, sp, #28
 80004f4:	f003 f97c 	bl	80037f0 <siprintf>
	      sprintf(secStr, "%d", sec);
 80004f8:	464a      	mov	r2, r9
 80004fa:	4932      	ldr	r1, [pc, #200]	@ (80005c4 <StartGuiTask+0x2d8>)
 80004fc:	a808      	add	r0, sp, #32
 80004fe:	f003 f977 	bl	80037f0 <siprintf>
		timeStr[1] = minStr[0];
 8000502:	f89d 301c 	ldrb.w	r3, [sp, #28]
		timeStr[0] = '0';
 8000506:	2230      	movs	r2, #48	@ 0x30
		timeStr[1] = minStr[0];
 8000508:	f88d 3025 	strb.w	r3, [sp, #37]	@ 0x25
	      timeStr[2] = ':';
 800050c:	233a      	movs	r3, #58	@ 0x3a
 800050e:	f88d 3026 	strb.w	r3, [sp, #38]	@ 0x26
 8000512:	f89d 3020 	ldrb.w	r3, [sp, #32]
	      if(sec <= 9)
 8000516:	f1b9 0f09 	cmp.w	r9, #9
		timeStr[3] = secStr[0];
 800051a:	bf86      	itte	hi
 800051c:	f88d 3027 	strbhi.w	r3, [sp, #39]	@ 0x27
		timeStr[4] = secStr[1];
 8000520:	f89d 3021 	ldrbhi.w	r3, [sp, #33]	@ 0x21
		timeStr[3] = '0';
 8000524:	f88d 2027 	strbls.w	r2, [sp, #39]	@ 0x27
		timeStr[0] = '0';
 8000528:	f88d 2024 	strb.w	r2, [sp, #36]	@ 0x24
		timeStr[4] = secStr[0];
 800052c:	f88d 3028 	strb.w	r3, [sp, #40]	@ 0x28
	      ssd1306_WriteString(timeStr, RuFont_7x13, White);
 8000530:	e894 0006 	ldmia.w	r4, {r1, r2}
 8000534:	2301      	movs	r3, #1
 8000536:	a809      	add	r0, sp, #36	@ 0x24
 8000538:	f000 fadc 	bl	8000af4 <ssd1306_WriteString>
	      ssd1306_SetCursor(4,30);
 800053c:	211e      	movs	r1, #30
 800053e:	2004      	movs	r0, #4
 8000540:	f000 faec 	bl	8000b1c <ssd1306_SetCursor>
	      ssd1306_WriteString("  Угол: ", RuFont_7x13, White);
 8000544:	e894 0006 	ldmia.w	r4, {r1, r2}
 8000548:	2301      	movs	r3, #1
 800054a:	4821      	ldr	r0, [pc, #132]	@ (80005d0 <StartGuiTask+0x2e4>)
 800054c:	f000 fad2 	bl	8000af4 <ssd1306_WriteString>
	      ssd1306_SetCursor(56, 30);
 8000550:	211e      	movs	r1, #30
 8000552:	2038      	movs	r0, #56	@ 0x38
 8000554:	f000 fae2 	bl	8000b1c <ssd1306_SetCursor>
	      sprintf(cornerStr, "%d", corner);
 8000558:	463a      	mov	r2, r7
 800055a:	491a      	ldr	r1, [pc, #104]	@ (80005c4 <StartGuiTask+0x2d8>)
 800055c:	a80b      	add	r0, sp, #44	@ 0x2c
 800055e:	f003 f947 	bl	80037f0 <siprintf>
	      ssd1306_WriteString(cornerStr, RuFont_7x13, White);
 8000562:	e894 0006 	ldmia.w	r4, {r1, r2}
 8000566:	2301      	movs	r3, #1
 8000568:	a80b      	add	r0, sp, #44	@ 0x2c
	      ssd1306_WriteString(cornerStr, RuFont_7x13, White);
 800056a:	f000 fac3 	bl	8000af4 <ssd1306_WriteString>
	  if (btnEvent.status == osEventMessage)
 800056e:	9b03      	ldr	r3, [sp, #12]
 8000570:	2b10      	cmp	r3, #16
 8000572:	f47f af35 	bne.w	80003e0 <StartGuiTask+0xf4>
	    if (btnEvent.value.v == 0 || btnEvent.value.v == 1)
 8000576:	f1bb 0f05 	cmp.w	fp, #5
 800057a:	f63f af0d 	bhi.w	8000398 <StartGuiTask+0xac>
 800057e:	a301      	add	r3, pc, #4	@ (adr r3, 8000584 <StartGuiTask+0x298>)
 8000580:	f853 f02b 	ldr.w	pc, [r3, fp, lsl #2]
 8000584:	0800066b 	.word	0x0800066b
 8000588:	0800066b 	.word	0x0800066b
 800058c:	08000683 	.word	0x08000683
 8000590:	08000675 	.word	0x08000675
 8000594:	08000399 	.word	0x08000399
 8000598:	080003d9 	.word	0x080003d9
 800059c:	40010800 	.word	0x40010800
 80005a0:	20000000 	.word	0x20000000
 80005a4:	20000734 	.word	0x20000734
 80005a8:	080041b0 	.word	0x080041b0
 80005ac:	080041bd 	.word	0x080041bd
 80005b0:	080041ca 	.word	0x080041ca
 80005b4:	080041d8 	.word	0x080041d8
 80005b8:	080041e5 	.word	0x080041e5
 80005bc:	080041f3 	.word	0x080041f3
 80005c0:	08004203 	.word	0x08004203
 80005c4:	08004210 	.word	0x08004210
 80005c8:	08004213 	.word	0x08004213
 80005cc:	08004224 	.word	0x08004224
 80005d0:	08004231 	.word	0x08004231
	      ssd1306_SetCursor(4,16);
 80005d4:	f000 faa2 	bl	8000b1c <ssd1306_SetCursor>
	      ssd1306_WriteString("  Задержка: ", RuFont_7x13, White);
 80005d8:	e894 0006 	ldmia.w	r4, {r1, r2}
 80005dc:	2301      	movs	r3, #1
 80005de:	4857      	ldr	r0, [pc, #348]	@ (800073c <StartGuiTask+0x450>)
 80005e0:	f000 fa88 	bl	8000af4 <ssd1306_WriteString>
	      ssd1306_SetCursor(88,16);
 80005e4:	2110      	movs	r1, #16
 80005e6:	2058      	movs	r0, #88	@ 0x58
 80005e8:	f000 fa98 	bl	8000b1c <ssd1306_SetCursor>
	      sprintf(minStr, "%d", min);
 80005ec:	9a05      	ldr	r2, [sp, #20]
 80005ee:	4954      	ldr	r1, [pc, #336]	@ (8000740 <StartGuiTask+0x454>)
 80005f0:	a807      	add	r0, sp, #28
 80005f2:	f003 f8fd 	bl	80037f0 <siprintf>
	      sprintf(secStr, "%d", sec);
 80005f6:	464a      	mov	r2, r9
 80005f8:	4951      	ldr	r1, [pc, #324]	@ (8000740 <StartGuiTask+0x454>)
 80005fa:	a808      	add	r0, sp, #32
 80005fc:	f003 f8f8 	bl	80037f0 <siprintf>
		timeStr[1] = minStr[0];
 8000600:	f89d 301c 	ldrb.w	r3, [sp, #28]
		timeStr[0] = '0';
 8000604:	2230      	movs	r2, #48	@ 0x30
		timeStr[1] = minStr[0];
 8000606:	f88d 302d 	strb.w	r3, [sp, #45]	@ 0x2d
	      timeStr[2] = ':';
 800060a:	233a      	movs	r3, #58	@ 0x3a
 800060c:	f88d 302e 	strb.w	r3, [sp, #46]	@ 0x2e
 8000610:	f89d 3020 	ldrb.w	r3, [sp, #32]
	      if(sec <= 9)
 8000614:	f1b9 0f09 	cmp.w	r9, #9
		timeStr[3] = secStr[0];
 8000618:	bf86      	itte	hi
 800061a:	f88d 302f 	strbhi.w	r3, [sp, #47]	@ 0x2f
		timeStr[4] = secStr[1];
 800061e:	f89d 3021 	ldrbhi.w	r3, [sp, #33]	@ 0x21
		timeStr[3] = '0';
 8000622:	f88d 202f 	strbls.w	r2, [sp, #47]	@ 0x2f
		timeStr[0] = '0';
 8000626:	f88d 202c 	strb.w	r2, [sp, #44]	@ 0x2c
		timeStr[4] = secStr[0];
 800062a:	f88d 3030 	strb.w	r3, [sp, #48]	@ 0x30
	      ssd1306_WriteString(timeStr, RuFont_7x13, White);
 800062e:	e894 0006 	ldmia.w	r4, {r1, r2}
 8000632:	2301      	movs	r3, #1
 8000634:	a80b      	add	r0, sp, #44	@ 0x2c
 8000636:	f000 fa5d 	bl	8000af4 <ssd1306_WriteString>
	      ssd1306_SetCursor(4,30);
 800063a:	211e      	movs	r1, #30
 800063c:	2004      	movs	r0, #4
 800063e:	f000 fa6d 	bl	8000b1c <ssd1306_SetCursor>
	      ssd1306_WriteString("> Угол: ", RuFont_7x13, White);
 8000642:	e894 0006 	ldmia.w	r4, {r1, r2}
 8000646:	2301      	movs	r3, #1
 8000648:	483e      	ldr	r0, [pc, #248]	@ (8000744 <StartGuiTask+0x458>)
 800064a:	f000 fa53 	bl	8000af4 <ssd1306_WriteString>
	      ssd1306_SetCursor(56, 30);
 800064e:	211e      	movs	r1, #30
 8000650:	2038      	movs	r0, #56	@ 0x38
 8000652:	f000 fa63 	bl	8000b1c <ssd1306_SetCursor>
	      sprintf(cornerStr, "%d", corner);
 8000656:	463a      	mov	r2, r7
 8000658:	4939      	ldr	r1, [pc, #228]	@ (8000740 <StartGuiTask+0x454>)
 800065a:	a809      	add	r0, sp, #36	@ 0x24
 800065c:	f003 f8c8 	bl	80037f0 <siprintf>
	      ssd1306_WriteString(cornerStr, RuFont_7x13, White);
 8000660:	e894 0006 	ldmia.w	r4, {r1, r2}
 8000664:	2301      	movs	r3, #1
 8000666:	a809      	add	r0, sp, #36	@ 0x24
 8000668:	e77f      	b.n	800056a <StartGuiTask+0x27e>
		intermittentModeMenuPointer = !intermittentModeMenuPointer;
 800066a:	9b02      	ldr	r3, [sp, #8]
 800066c:	f083 0301 	eor.w	r3, r3, #1
 8000670:	9302      	str	r3, [sp, #8]
 8000672:	e691      	b.n	8000398 <StartGuiTask+0xac>
		if(intermittentModeMenuPointer == 0)
 8000674:	9b02      	ldr	r3, [sp, #8]
 8000676:	b953      	cbnz	r3, 800068e <StartGuiTask+0x3a2>
		    if(sleep == 250)
 8000678:	2efa      	cmp	r6, #250	@ 0xfa
 800067a:	d013      	beq.n	80006a4 <StartGuiTask+0x3b8>
		      sleep+=10;
 800067c:	360a      	adds	r6, #10
		      sleep-=10;
 800067e:	b2f6      	uxtb	r6, r6
 8000680:	e68a      	b.n	8000398 <StartGuiTask+0xac>
		if(intermittentModeMenuPointer == 0)
 8000682:	9b02      	ldr	r3, [sp, #8]
 8000684:	b91b      	cbnz	r3, 800068e <StartGuiTask+0x3a2>
		    if(sleep == 10)
 8000686:	2e0a      	cmp	r6, #10
 8000688:	d00e      	beq.n	80006a8 <StartGuiTask+0x3bc>
		      sleep-=10;
 800068a:	3e0a      	subs	r6, #10
 800068c:	e7f7      	b.n	800067e <StartGuiTask+0x392>
		    if(corner == 45)
 800068e:	2f2d      	cmp	r7, #45	@ 0x2d
 8000690:	d00c      	beq.n	80006ac <StartGuiTask+0x3c0>
		      corner = 45;
 8000692:	2f5a      	cmp	r7, #90	@ 0x5a
 8000694:	bf08      	it	eq
 8000696:	272d      	moveq	r7, #45	@ 0x2d
 8000698:	e67e      	b.n	8000398 <StartGuiTask+0xac>
		  speed = 10;
 800069a:	f04f 0a0a 	mov.w	sl, #10
 800069e:	e67b      	b.n	8000398 <StartGuiTask+0xac>
		  speed = 1;
 80006a0:	46aa      	mov	sl, r5
 80006a2:	e679      	b.n	8000398 <StartGuiTask+0xac>
		      sleep = 10;
 80006a4:	260a      	movs	r6, #10
 80006a6:	e677      	b.n	8000398 <StartGuiTask+0xac>
		      sleep = 250;
 80006a8:	26fa      	movs	r6, #250	@ 0xfa
 80006aa:	e675      	b.n	8000398 <StartGuiTask+0xac>
			corner = 90;
 80006ac:	275a      	movs	r7, #90	@ 0x5a
 80006ae:	e673      	b.n	8000398 <StartGuiTask+0xac>
		  HAL_GPIO_WritePin(buzzer_GPIO_Port, buzzer_Pin, 1);
 80006b0:	2201      	movs	r2, #1
 80006b2:	2110      	movs	r1, #16
 80006b4:	4640      	mov	r0, r8
 80006b6:	f000 fda7 	bl	8001208 <HAL_GPIO_WritePin>
		  osDelay(50);
 80006ba:	2032      	movs	r0, #50	@ 0x32
 80006bc:	f001 fac5 	bl	8001c4a <osDelay>
		  HAL_GPIO_WritePin(buzzer_GPIO_Port, buzzer_Pin, 0);
 80006c0:	4640      	mov	r0, r8
 80006c2:	2200      	movs	r2, #0
 80006c4:	2110      	movs	r1, #16
 80006c6:	f000 fd9f 	bl	8001208 <HAL_GPIO_WritePin>
		  osDelay(50);
 80006ca:	2032      	movs	r0, #50	@ 0x32
 80006cc:	f001 fabd 	bl	8001c4a <osDelay>
		  HAL_GPIO_WritePin(buzzer_GPIO_Port, buzzer_Pin, 1);
 80006d0:	4640      	mov	r0, r8
 80006d2:	2201      	movs	r2, #1
 80006d4:	2110      	movs	r1, #16
 80006d6:	f000 fd97 	bl	8001208 <HAL_GPIO_WritePin>
		  osDelay(30);
 80006da:	201e      	movs	r0, #30
		  osDelay(250);
 80006dc:	f001 fab5 	bl	8001c4a <osDelay>
		  HAL_GPIO_WritePin(buzzer_GPIO_Port, buzzer_Pin, 0);
 80006e0:	2200      	movs	r2, #0
 80006e2:	2110      	movs	r1, #16
 80006e4:	4640      	mov	r0, r8
 80006e6:	f000 fd8f 	bl	8001208 <HAL_GPIO_WritePin>
 80006ea:	e679      	b.n	80003e0 <StartGuiTask+0xf4>
		  HAL_GPIO_WritePin(buzzer_GPIO_Port, buzzer_Pin, 1);
 80006ec:	4640      	mov	r0, r8
 80006ee:	2201      	movs	r2, #1
 80006f0:	2110      	movs	r1, #16
 80006f2:	f000 fd89 	bl	8001208 <HAL_GPIO_WritePin>
		  osDelay(250);
 80006f6:	20fa      	movs	r0, #250	@ 0xfa
 80006f8:	e7f0      	b.n	80006dc <StartGuiTask+0x3f0>
		  HAL_GPIO_WritePin(buzzer_GPIO_Port, buzzer_Pin, 1);
 80006fa:	2201      	movs	r2, #1
 80006fc:	2110      	movs	r1, #16
 80006fe:	4640      	mov	r0, r8
 8000700:	f000 fd82 	bl	8001208 <HAL_GPIO_WritePin>
		  osDelay(100);
 8000704:	2064      	movs	r0, #100	@ 0x64
 8000706:	f001 faa0 	bl	8001c4a <osDelay>
		  HAL_GPIO_WritePin(buzzer_GPIO_Port, buzzer_Pin, 0);
 800070a:	2200      	movs	r2, #0
 800070c:	2110      	movs	r1, #16
 800070e:	4640      	mov	r0, r8
 8000710:	f000 fd7a 	bl	8001208 <HAL_GPIO_WritePin>
		  osDelay(100);
 8000714:	2064      	movs	r0, #100	@ 0x64
 8000716:	f001 fa98 	bl	8001c4a <osDelay>
		  HAL_GPIO_WritePin(buzzer_GPIO_Port, buzzer_Pin, 1);
 800071a:	2201      	movs	r2, #1
 800071c:	2110      	movs	r1, #16
 800071e:	4640      	mov	r0, r8
 8000720:	f000 fd72 	bl	8001208 <HAL_GPIO_WritePin>
		  osDelay(100);
 8000724:	2064      	movs	r0, #100	@ 0x64
 8000726:	f001 fa90 	bl	8001c4a <osDelay>
		  HAL_GPIO_WritePin(buzzer_GPIO_Port, buzzer_Pin, 0);
 800072a:	4640      	mov	r0, r8
 800072c:	2200      	movs	r2, #0
 800072e:	2110      	movs	r1, #16
 8000730:	f000 fd6a 	bl	8001208 <HAL_GPIO_WritePin>
		  ssd1306_SetDisplayOn(1);
 8000734:	2001      	movs	r0, #1
 8000736:	f000 faa9 	bl	8000c8c <ssd1306_SetDisplayOn>
 800073a:	e651      	b.n	80003e0 <StartGuiTask+0xf4>
 800073c:	0800423a 	.word	0x0800423a
 8000740:	08004210 	.word	0x08004210
 8000744:	08004247 	.word	0x08004247

08000748 <screenTimeoutCallback>:

/* screenTimeoutCallback function */
void screenTimeoutCallback(void const * argument)
{
  /* USER CODE BEGIN screenTimeoutCallback */
  ssd1306_SetDisplayOn(0);
 8000748:	2000      	movs	r0, #0
 800074a:	f000 ba9f 	b.w	8000c8c <ssd1306_SetDisplayOn>
	...

08000750 <cancelButtonCallback>:
{
 8000750:	b508      	push	{r3, lr}
  if (ssd1306_GetDisplayOn()==0) osMessagePut(buttonPressedQueueHandle, 6, 100); else osMessagePut(buttonPressedQueueHandle, 5, 100);
 8000752:	f000 fb0d 	bl	8000d70 <ssd1306_GetDisplayOn>
 8000756:	2264      	movs	r2, #100	@ 0x64
 8000758:	4b04      	ldr	r3, [pc, #16]	@ (800076c <cancelButtonCallback+0x1c>)
 800075a:	b928      	cbnz	r0, 8000768 <cancelButtonCallback+0x18>
 800075c:	2106      	movs	r1, #6
 800075e:	6818      	ldr	r0, [r3, #0]
}
 8000760:	e8bd 4008 	ldmia.w	sp!, {r3, lr}
  if (ssd1306_GetDisplayOn()==0) osMessagePut(buttonPressedQueueHandle, 6, 100); else osMessagePut(buttonPressedQueueHandle, 5, 100);
 8000764:	f001 baf4 	b.w	8001d50 <osMessagePut>
 8000768:	2105      	movs	r1, #5
 800076a:	e7f8      	b.n	800075e <cancelButtonCallback+0xe>
 800076c:	20000734 	.word	0x20000734

08000770 <SystemClock_Config>:
{
 8000770:	b510      	push	{r4, lr}
 8000772:	b090      	sub	sp, #64	@ 0x40
  RCC_OscInitTypeDef RCC_OscInitStruct = {0};
 8000774:	2214      	movs	r2, #20
 8000776:	2100      	movs	r1, #0
 8000778:	a808      	add	r0, sp, #32
 800077a:	f003 f859 	bl	8003830 <memset>
  RCC_ClkInitTypeDef RCC_ClkInitStruct = {0};
 800077e:	2214      	movs	r2, #20
 8000780:	2100      	movs	r1, #0
 8000782:	a801      	add	r0, sp, #4
 8000784:	f003 f854 	bl	8003830 <memset>
  RCC_OscInitStruct.PLL.PLLState = RCC_PLL_ON;
 8000788:	2402      	movs	r4, #2
  RCC_OscInitStruct.HSEState = RCC_HSE_ON;
 800078a:	f44f 3380 	mov.w	r3, #65536	@ 0x10000
 800078e:	2201      	movs	r2, #1
  RCC_OscInitStruct.PLL.PLLSource = RCC_PLLSOURCE_HSE;
 8000790:	e9cd 430d 	strd	r4, r3, [sp, #52]	@ 0x34
  RCC_OscInitStruct.HSEState = RCC_HSE_ON;
 8000794:	e9cd 2306 	strd	r2, r3, [sp, #24]
  RCC_OscInitStruct.PLL.PLLMUL = RCC_PLL_MUL9;
 8000798:	f44f 13e0 	mov.w	r3, #1835008	@ 0x1c0000
  if (HAL_RCC_OscConfig(&RCC_OscInitStruct) != HAL_OK)
 800079c:	a806      	add	r0, sp, #24
  RCC_OscInitStruct.HSIState = RCC_HSI_ON;
 800079e:	920a      	str	r2, [sp, #40]	@ 0x28
  RCC_OscInitStruct.PLL.PLLMUL = RCC_PLL_MUL9;
 80007a0:	930f      	str	r3, [sp, #60]	@ 0x3c
  if (HAL_RCC_OscConfig(&RCC_OscInitStruct) != HAL_OK)
 80007a2:	f000 ffb7 	bl	8001714 <HAL_RCC_OscConfig>
 80007a6:	b108      	cbz	r0, 80007ac <SystemClock_Config+0x3c>
  \details Disables IRQ interrupts by setting the I-bit in the CPSR.
           Can only be executed in Privileged modes.
 */
__STATIC_FORCEINLINE void __disable_irq(void)
{
  __ASM volatile ("cpsid i" : : : "memory");
 80007a8:	b672      	cpsid	i
void Error_Handler(void)
{
  /* USER CODE BEGIN Error_Handler_Debug */
  /* User can add his own implementation to report the HAL error return state */
  __disable_irq();
  while (1)
 80007aa:	e7fe      	b.n	80007aa <SystemClock_Config+0x3a>
  RCC_ClkInitStruct.ClockType = RCC_CLOCKTYPE_HCLK|RCC_CLOCKTYPE_SYSCLK
 80007ac:	230f      	movs	r3, #15
  RCC_ClkInitStruct.SYSCLKSource = RCC_SYSCLKSOURCE_PLLCLK;
 80007ae:	e9cd 3401 	strd	r3, r4, [sp, #4]
  RCC_ClkInitStruct.APB1CLKDivider = RCC_HCLK_DIV2;
 80007b2:	f44f 6380 	mov.w	r3, #1024	@ 0x400
  RCC_ClkInitStruct.AHBCLKDivider = RCC_SYSCLK_DIV1;
 80007b6:	9003      	str	r0, [sp, #12]
  RCC_ClkInitStruct.APB2CLKDivider = RCC_HCLK_DIV1;
 80007b8:	e9cd 3004 	strd	r3, r0, [sp, #16]
  if (HAL_RCC_ClockConfig(&RCC_ClkInitStruct, FLASH_LATENCY_2) != HAL_OK)
 80007bc:	4621      	mov	r1, r4
 80007be:	a801      	add	r0, sp, #4
 80007c0:	f001 f96a 	bl	8001a98 <HAL_RCC_ClockConfig>
 80007c4:	b108      	cbz	r0, 80007ca <SystemClock_Config+0x5a>
 80007c6:	b672      	cpsid	i
  while (1)
 80007c8:	e7fe      	b.n	80007c8 <SystemClock_Config+0x58>
}
 80007ca:	b010      	add	sp, #64	@ 0x40
 80007cc:	bd10      	pop	{r4, pc}
	...

080007d0 <main>:
  GPIO_InitTypeDef GPIO_InitStruct = {0};
 80007d0:	2410      	movs	r4, #16
{
 80007d2:	b580      	push	{r7, lr}
 80007d4:	b09c      	sub	sp, #112	@ 0x70
  HAL_Init();
 80007d6:	f000 fbb3 	bl	8000f40 <HAL_Init>
  SystemClock_Config();
 80007da:	f7ff ffc9 	bl	8000770 <SystemClock_Config>
  GPIO_InitTypeDef GPIO_InitStruct = {0};
 80007de:	4622      	mov	r2, r4
 80007e0:	2100      	movs	r1, #0
 80007e2:	a815      	add	r0, sp, #84	@ 0x54
 80007e4:	f003 f824 	bl	8003830 <memset>
  __HAL_RCC_GPIOD_CLK_ENABLE();
 80007e8:	4b54      	ldr	r3, [pc, #336]	@ (800093c <main+0x16c>)
  HAL_GPIO_WritePin(buzzer_GPIO_Port, buzzer_Pin, GPIO_PIN_RESET);
 80007ea:	4621      	mov	r1, r4
  __HAL_RCC_GPIOD_CLK_ENABLE();
 80007ec:	699a      	ldr	r2, [r3, #24]
  HAL_GPIO_WritePin(buzzer_GPIO_Port, buzzer_Pin, GPIO_PIN_RESET);
 80007ee:	4854      	ldr	r0, [pc, #336]	@ (8000940 <main+0x170>)
  __HAL_RCC_GPIOD_CLK_ENABLE();
 80007f0:	f042 0220 	orr.w	r2, r2, #32
 80007f4:	619a      	str	r2, [r3, #24]
 80007f6:	699a      	ldr	r2, [r3, #24]
  GPIO_InitStruct.Pull = GPIO_NOPULL;
 80007f8:	2601      	movs	r6, #1
  __HAL_RCC_GPIOD_CLK_ENABLE();
 80007fa:	f002 0220 	and.w	r2, r2, #32
 80007fe:	9203      	str	r2, [sp, #12]
 8000800:	9a03      	ldr	r2, [sp, #12]
  __HAL_RCC_GPIOA_CLK_ENABLE();
 8000802:	699a      	ldr	r2, [r3, #24]
  GPIO_InitStruct.Speed = GPIO_SPEED_FREQ_LOW;
 8000804:	2702      	movs	r7, #2
  __HAL_RCC_GPIOA_CLK_ENABLE();
 8000806:	f042 0204 	orr.w	r2, r2, #4
 800080a:	619a      	str	r2, [r3, #24]
 800080c:	699a      	ldr	r2, [r3, #24]
 800080e:	f002 0204 	and.w	r2, r2, #4
 8000812:	9204      	str	r2, [sp, #16]
 8000814:	9a04      	ldr	r2, [sp, #16]
  __HAL_RCC_GPIOB_CLK_ENABLE();
 8000816:	699a      	ldr	r2, [r3, #24]
 8000818:	f042 0208 	orr.w	r2, r2, #8
 800081c:	619a      	str	r2, [r3, #24]
 800081e:	699b      	ldr	r3, [r3, #24]
  HAL_GPIO_WritePin(buzzer_GPIO_Port, buzzer_Pin, GPIO_PIN_RESET);
 8000820:	2200      	movs	r2, #0
  __HAL_RCC_GPIOB_CLK_ENABLE();
 8000822:	f003 0308 	and.w	r3, r3, #8
 8000826:	9305      	str	r3, [sp, #20]
 8000828:	9b05      	ldr	r3, [sp, #20]
  HAL_GPIO_WritePin(buzzer_GPIO_Port, buzzer_Pin, GPIO_PIN_RESET);
 800082a:	f000 fced 	bl	8001208 <HAL_GPIO_WritePin>
  GPIO_InitStruct.Pin = buzzer_Pin;
 800082e:	9415      	str	r4, [sp, #84]	@ 0x54
  GPIO_InitStruct.Pull = GPIO_NOPULL;
 8000830:	2400      	movs	r4, #0
  HAL_GPIO_Init(buzzer_GPIO_Port, &GPIO_InitStruct);
 8000832:	4843      	ldr	r0, [pc, #268]	@ (8000940 <main+0x170>)
 8000834:	a915      	add	r1, sp, #84	@ 0x54
  GPIO_InitStruct.Pull = GPIO_NOPULL;
 8000836:	e9cd 6416 	strd	r6, r4, [sp, #88]	@ 0x58
  GPIO_InitStruct.Speed = GPIO_SPEED_FREQ_LOW;
 800083a:	9718      	str	r7, [sp, #96]	@ 0x60
  HAL_GPIO_Init(buzzer_GPIO_Port, &GPIO_InitStruct);
 800083c:	f000 fc0c 	bl	8001058 <HAL_GPIO_Init>
  GPIO_InitStruct.Pin = btn_bottom_Pin;
 8000840:	f44f 4300 	mov.w	r3, #32768	@ 0x8000
  HAL_GPIO_Init(btn_bottom_GPIO_Port, &GPIO_InitStruct);
 8000844:	483e      	ldr	r0, [pc, #248]	@ (8000940 <main+0x170>)
 8000846:	a915      	add	r1, sp, #84	@ 0x54
  GPIO_InitStruct.Mode = GPIO_MODE_INPUT;
 8000848:	e9cd 3415 	strd	r3, r4, [sp, #84]	@ 0x54
  GPIO_InitStruct.Pull = GPIO_PULLUP;
 800084c:	9617      	str	r6, [sp, #92]	@ 0x5c
  HAL_GPIO_Init(btn_bottom_GPIO_Port, &GPIO_InitStruct);
 800084e:	f000 fc03 	bl	8001058 <HAL_GPIO_Init>
  GPIO_InitStruct.Pin = btn_left_Pin|btn_ok_Pin|btn_right_Pin|btn_top_Pin;
 8000852:	23f0      	movs	r3, #240	@ 0xf0
  HAL_GPIO_Init(GPIOB, &GPIO_InitStruct);
 8000854:	483b      	ldr	r0, [pc, #236]	@ (8000944 <main+0x174>)
 8000856:	a915      	add	r1, sp, #84	@ 0x54
  GPIO_InitStruct.Mode = GPIO_MODE_INPUT;
 8000858:	e9cd 3415 	strd	r3, r4, [sp, #84]	@ 0x54
  GPIO_InitStruct.Pull = GPIO_PULLUP;
 800085c:	9617      	str	r6, [sp, #92]	@ 0x5c
  HAL_GPIO_Init(GPIOB, &GPIO_InitStruct);
 800085e:	f000 fbfb 	bl	8001058 <HAL_GPIO_Init>
  hi2c1.Instance = I2C1;
 8000862:	4839      	ldr	r0, [pc, #228]	@ (8000948 <main+0x178>)
  hi2c1.Init.ClockSpeed = 100000;
 8000864:	4a39      	ldr	r2, [pc, #228]	@ (800094c <main+0x17c>)
 8000866:	4b3a      	ldr	r3, [pc, #232]	@ (8000950 <main+0x180>)
  hi2c1.Init.OwnAddress1 = 0;
 8000868:	e9c0 4402 	strd	r4, r4, [r0, #8]
  hi2c1.Init.ClockSpeed = 100000;
 800086c:	e9c0 2300 	strd	r2, r3, [r0]
  hi2c1.Init.AddressingMode = I2C_ADDRESSINGMODE_7BIT;
 8000870:	f44f 4380 	mov.w	r3, #16384	@ 0x4000
  hi2c1.Init.GeneralCallMode = I2C_GENERALCALL_DISABLE;
 8000874:	e9c0 4406 	strd	r4, r4, [r0, #24]
  hi2c1.Init.DualAddressMode = I2C_DUALADDRESS_DISABLE;
 8000878:	e9c0 3404 	strd	r3, r4, [r0, #16]
  hi2c1.Init.NoStretchMode = I2C_NOSTRETCH_DISABLE;
 800087c:	6204      	str	r4, [r0, #32]
  if (HAL_I2C_Init(&hi2c1) != HAL_OK)
 800087e:	f000 fe11 	bl	80014a4 <HAL_I2C_Init>
 8000882:	4605      	mov	r5, r0
 8000884:	b108      	cbz	r0, 800088a <main+0xba>
 8000886:	b672      	cpsid	i
  while (1)
 8000888:	e7fe      	b.n	8000888 <main+0xb8>
  ssd1306_Init();
 800088a:	f000 fa0d 	bl	8000ca8 <ssd1306_Init>
  ssd1306_Fill(Black);
 800088e:	4628      	mov	r0, r5
 8000890:	f000 f89e 	bl	80009d0 <ssd1306_Fill>
  ssd1306_DrawBitmap(43, 2, logo, 42, 42, White);
 8000894:	232a      	movs	r3, #42	@ 0x2a
 8000896:	4639      	mov	r1, r7
 8000898:	4a2e      	ldr	r2, [pc, #184]	@ (8000954 <main+0x184>)
 800089a:	9300      	str	r3, [sp, #0]
 800089c:	202b      	movs	r0, #43	@ 0x2b
 800089e:	9601      	str	r6, [sp, #4]
 80008a0:	f000 f9b0 	bl	8000c04 <ssd1306_DrawBitmap>
  ssd1306_SetCursor(11, 46);
 80008a4:	212e      	movs	r1, #46	@ 0x2e
 80008a6:	200b      	movs	r0, #11
 80008a8:	f000 f938 	bl	8000b1c <ssd1306_SetCursor>
  ssd1306_WriteString("АвтоШашлык V0.1", RuFont_7x13, White);
 80008ac:	4a2a      	ldr	r2, [pc, #168]	@ (8000958 <main+0x188>)
 80008ae:	4633      	mov	r3, r6
 80008b0:	ca06      	ldmia	r2, {r1, r2}
 80008b2:	482a      	ldr	r0, [pc, #168]	@ (800095c <main+0x18c>)
 80008b4:	f000 f91e 	bl	8000af4 <ssd1306_WriteString>
  ssd1306_UpdateScreen();
 80008b8:	f000 f896 	bl	80009e8 <ssd1306_UpdateScreen>
  osTimerDef(cancelButton, cancelButtonCallback);
 80008bc:	4b28      	ldr	r3, [pc, #160]	@ (8000960 <main+0x190>)
  cancelButtonHandle = osTimerCreate(osTimer(cancelButton), osTimerOnce, NULL);
 80008be:	462a      	mov	r2, r5
 80008c0:	4629      	mov	r1, r5
 80008c2:	a806      	add	r0, sp, #24
  osTimerDef(cancelButton, cancelButtonCallback);
 80008c4:	e9cd 3506 	strd	r3, r5, [sp, #24]
  cancelButtonHandle = osTimerCreate(osTimer(cancelButton), osTimerOnce, NULL);
 80008c8:	f001 f9c8 	bl	8001c5c <osTimerCreate>
 80008cc:	4b25      	ldr	r3, [pc, #148]	@ (8000964 <main+0x194>)
  screenTimeoutTimerHandle = osTimerCreate(osTimer(screenTimeoutTimer), osTimerOnce, NULL);
 80008ce:	462a      	mov	r2, r5
  cancelButtonHandle = osTimerCreate(osTimer(cancelButton), osTimerOnce, NULL);
 80008d0:	6018      	str	r0, [r3, #0]
  osTimerDef(screenTimeoutTimer, screenTimeoutCallback);
 80008d2:	4b25      	ldr	r3, [pc, #148]	@ (8000968 <main+0x198>)
  screenTimeoutTimerHandle = osTimerCreate(osTimer(screenTimeoutTimer), osTimerOnce, NULL);
 80008d4:	4629      	mov	r1, r5
 80008d6:	a808      	add	r0, sp, #32
  osTimerDef(screenTimeoutTimer, screenTimeoutCallback);
 80008d8:	e9cd 3508 	strd	r3, r5, [sp, #32]
  screenTimeoutTimerHandle = osTimerCreate(osTimer(screenTimeoutTimer), osTimerOnce, NULL);
 80008dc:	f001 f9be 	bl	8001c5c <osTimerCreate>
  osMessageQDef(buttonPressedQueue, 8, uint8_t);
 80008e0:	4c22      	ldr	r4, [pc, #136]	@ (800096c <main+0x19c>)
  screenTimeoutTimerHandle = osTimerCreate(osTimer(screenTimeoutTimer), osTimerOnce, NULL);
 80008e2:	4b23      	ldr	r3, [pc, #140]	@ (8000970 <main+0x1a0>)
  osMessageQDef(buttonPressedQueue, 8, uint8_t);
 80008e4:	ae0a      	add	r6, sp, #40	@ 0x28
  screenTimeoutTimerHandle = osTimerCreate(osTimer(screenTimeoutTimer), osTimerOnce, NULL);
 80008e6:	6018      	str	r0, [r3, #0]
  osMessageQDef(buttonPressedQueue, 8, uint8_t);
 80008e8:	e894 000f 	ldmia.w	r4, {r0, r1, r2, r3}
 80008ec:	e886 000f 	stmia.w	r6, {r0, r1, r2, r3}
  buttonPressedQueueHandle = osMessageCreate(osMessageQ(buttonPressedQueue), NULL);
 80008f0:	4629      	mov	r1, r5
 80008f2:	4630      	mov	r0, r6
 80008f4:	f001 fa1a 	bl	8001d2c <osMessageCreate>
 80008f8:	4b1e      	ldr	r3, [pc, #120]	@ (8000974 <main+0x1a4>)
  osThreadDef(readKeyTask, StartReadKeyTask, osPriorityAboveNormal, 0, 128);
 80008fa:	f104 0710 	add.w	r7, r4, #16
 80008fe:	ae0e      	add	r6, sp, #56	@ 0x38
  buttonPressedQueueHandle = osMessageCreate(osMessageQ(buttonPressedQueue), NULL);
 8000900:	6018      	str	r0, [r3, #0]
  osThreadDef(readKeyTask, StartReadKeyTask, osPriorityAboveNormal, 0, 128);
 8000902:	cf0f      	ldmia	r7!, {r0, r1, r2, r3}
 8000904:	c60f      	stmia	r6!, {r0, r1, r2, r3}
 8000906:	e897 0007 	ldmia.w	r7, {r0, r1, r2}
 800090a:	e886 0007 	stmia.w	r6, {r0, r1, r2}
  readKeyTaskHandle = osThreadCreate(osThread(readKeyTask), NULL);
 800090e:	4629      	mov	r1, r5
 8000910:	a80e      	add	r0, sp, #56	@ 0x38
 8000912:	f001 f972 	bl	8001bfa <osThreadCreate>
 8000916:	4b18      	ldr	r3, [pc, #96]	@ (8000978 <main+0x1a8>)
  osThreadDef(guiTask, StartGuiTask, osPriorityNormal, 0, 128);
 8000918:	ae15      	add	r6, sp, #84	@ 0x54
 800091a:	342c      	adds	r4, #44	@ 0x2c
  readKeyTaskHandle = osThreadCreate(osThread(readKeyTask), NULL);
 800091c:	6018      	str	r0, [r3, #0]
  osThreadDef(guiTask, StartGuiTask, osPriorityNormal, 0, 128);
 800091e:	cc0f      	ldmia	r4!, {r0, r1, r2, r3}
 8000920:	c60f      	stmia	r6!, {r0, r1, r2, r3}
 8000922:	e894 0007 	ldmia.w	r4, {r0, r1, r2}
 8000926:	e886 0007 	stmia.w	r6, {r0, r1, r2}
  guiTaskHandle = osThreadCreate(osThread(guiTask), NULL);
 800092a:	4629      	mov	r1, r5
 800092c:	a815      	add	r0, sp, #84	@ 0x54
 800092e:	f001 f964 	bl	8001bfa <osThreadCreate>
 8000932:	4b12      	ldr	r3, [pc, #72]	@ (800097c <main+0x1ac>)
 8000934:	6018      	str	r0, [r3, #0]
  osKernelStart();
 8000936:	f001 f95b 	bl	8001bf0 <osKernelStart>
  while (1)
 800093a:	e7fe      	b.n	800093a <main+0x16a>
 800093c:	40021000 	.word	0x40021000
 8000940:	40010800 	.word	0x40010800
 8000944:	40010c00 	.word	0x40010c00
 8000948:	20000740 	.word	0x20000740
 800094c:	40005400 	.word	0x40005400
 8000950:	000186a0 	.word	0x000186a0
 8000954:	08004274 	.word	0x08004274
 8000958:	20000000 	.word	0x20000000
 800095c:	08004250 	.word	0x08004250
 8000960:	08000751 	.word	0x08000751
 8000964:	20000730 	.word	0x20000730
 8000968:	08000749 	.word	0x08000749
 800096c:	08004168 	.word	0x08004168
 8000970:	2000072c 	.word	0x2000072c
 8000974:	20000734 	.word	0x20000734
 8000978:	2000073c 	.word	0x2000073c
 800097c:	20000738 	.word	0x20000738

08000980 <ssd1306_WriteCommand>:
void ssd1306_Reset(void) {
    /* for I2C - do nothing */
}

// Send a byte to the command register
void ssd1306_WriteCommand(uint8_t byte) {
 8000980:	b57f      	push	{r0, r1, r2, r3, r4, r5, r6, lr}
    HAL_I2C_Mem_Write(&SSD1306_I2C_PORT, SSD1306_I2C_ADDR, 0x00, 1, &byte, 1, HAL_MAX_DELAY);
 8000982:	2301      	movs	r3, #1
 8000984:	f04f 32ff 	mov.w	r2, #4294967295
 8000988:	e9cd 3201 	strd	r3, r2, [sp, #4]
 800098c:	f10d 0217 	add.w	r2, sp, #23
void ssd1306_WriteCommand(uint8_t byte) {
 8000990:	f88d 0017 	strb.w	r0, [sp, #23]
    HAL_I2C_Mem_Write(&SSD1306_I2C_PORT, SSD1306_I2C_ADDR, 0x00, 1, &byte, 1, HAL_MAX_DELAY);
 8000994:	9200      	str	r2, [sp, #0]
 8000996:	2178      	movs	r1, #120	@ 0x78
 8000998:	2200      	movs	r2, #0
 800099a:	4803      	ldr	r0, [pc, #12]	@ (80009a8 <ssd1306_WriteCommand+0x28>)
 800099c:	f000 fe2a 	bl	80015f4 <HAL_I2C_Mem_Write>
}
 80009a0:	b007      	add	sp, #28
 80009a2:	f85d fb04 	ldr.w	pc, [sp], #4
 80009a6:	bf00      	nop
 80009a8:	20000740 	.word	0x20000740

080009ac <ssd1306_WriteData>:

// Send data
void ssd1306_WriteData(uint8_t* buffer, size_t buff_size) {
 80009ac:	b51f      	push	{r0, r1, r2, r3, r4, lr}
    HAL_I2C_Mem_Write(&SSD1306_I2C_PORT, SSD1306_I2C_ADDR, 0x40, 1, buffer, buff_size, HAL_MAX_DELAY);
 80009ae:	f04f 33ff 	mov.w	r3, #4294967295
 80009b2:	b289      	uxth	r1, r1
 80009b4:	e9cd 0100 	strd	r0, r1, [sp]
 80009b8:	9302      	str	r3, [sp, #8]
 80009ba:	2240      	movs	r2, #64	@ 0x40
 80009bc:	2301      	movs	r3, #1
 80009be:	2178      	movs	r1, #120	@ 0x78
 80009c0:	4802      	ldr	r0, [pc, #8]	@ (80009cc <ssd1306_WriteData+0x20>)
 80009c2:	f000 fe17 	bl	80015f4 <HAL_I2C_Mem_Write>
}
 80009c6:	b005      	add	sp, #20
 80009c8:	f85d fb04 	ldr.w	pc, [sp], #4
 80009cc:	20000740 	.word	0x20000740

080009d0 <ssd1306_Fill>:
    SSD1306.Initialized = 1;
}

/* Fill the whole screen with the given color */
void ssd1306_Fill(SSD1306_COLOR color) {
    memset(SSD1306_Buffer, (color == Black) ? 0x00 : 0xFF, sizeof(SSD1306_Buffer));
 80009d0:	2800      	cmp	r0, #0
 80009d2:	f44f 6280 	mov.w	r2, #1024	@ 0x400
 80009d6:	bf14      	ite	ne
 80009d8:	21ff      	movne	r1, #255	@ 0xff
 80009da:	2100      	moveq	r1, #0
 80009dc:	4801      	ldr	r0, [pc, #4]	@ (80009e4 <ssd1306_Fill+0x14>)
 80009de:	f002 bf27 	b.w	8003830 <memset>
 80009e2:	bf00      	nop
 80009e4:	2000079a 	.word	0x2000079a

080009e8 <ssd1306_UpdateScreen>:
}

/* Write the screenbuffer with changed to the screen */
void ssd1306_UpdateScreen(void) {
 80009e8:	b538      	push	{r3, r4, r5, lr}
 80009ea:	24b0      	movs	r4, #176	@ 0xb0
 80009ec:	4d0a      	ldr	r5, [pc, #40]	@ (8000a18 <ssd1306_UpdateScreen+0x30>)
    //
    //  * 32px   ==  4 pages
    //  * 64px   ==  8 pages
    //  * 128px  ==  16 pages
    for(uint8_t i = 0; i < SSD1306_HEIGHT/8; i++) {
        ssd1306_WriteCommand(0xB0 + i); // Set the current RAM page address.
 80009ee:	4620      	mov	r0, r4
 80009f0:	f7ff ffc6 	bl	8000980 <ssd1306_WriteCommand>
        ssd1306_WriteCommand(0x00 + SSD1306_X_OFFSET_LOWER);
 80009f4:	2000      	movs	r0, #0
 80009f6:	f7ff ffc3 	bl	8000980 <ssd1306_WriteCommand>
    for(uint8_t i = 0; i < SSD1306_HEIGHT/8; i++) {
 80009fa:	3401      	adds	r4, #1
        ssd1306_WriteCommand(0x10 + SSD1306_X_OFFSET_UPPER);
 80009fc:	2010      	movs	r0, #16
 80009fe:	f7ff ffbf 	bl	8000980 <ssd1306_WriteCommand>
    for(uint8_t i = 0; i < SSD1306_HEIGHT/8; i++) {
 8000a02:	b2e4      	uxtb	r4, r4
        ssd1306_WriteData(&SSD1306_Buffer[SSD1306_WIDTH*i],SSD1306_WIDTH);
 8000a04:	4628      	mov	r0, r5
 8000a06:	2180      	movs	r1, #128	@ 0x80
 8000a08:	f7ff ffd0 	bl	80009ac <ssd1306_WriteData>
    for(uint8_t i = 0; i < SSD1306_HEIGHT/8; i++) {
 8000a0c:	2cb8      	cmp	r4, #184	@ 0xb8
 8000a0e:	f105 0580 	add.w	r5, r5, #128	@ 0x80
 8000a12:	d1ec      	bne.n	80009ee <ssd1306_UpdateScreen+0x6>
    }
}
 8000a14:	bd38      	pop	{r3, r4, r5, pc}
 8000a16:	bf00      	nop
 8000a18:	2000079a 	.word	0x2000079a

08000a1c <ssd1306_DrawPixel>:
 * X => X Coordinate
 * Y => Y Coordinate
 * color => Pixel color
 */
void ssd1306_DrawPixel(uint8_t x, uint8_t y, SSD1306_COLOR color) {
    if(x >= SSD1306_WIDTH || y >= SSD1306_HEIGHT) {
 8000a1c:	0603      	lsls	r3, r0, #24
void ssd1306_DrawPixel(uint8_t x, uint8_t y, SSD1306_COLOR color) {
 8000a1e:	b530      	push	{r4, r5, lr}
    if(x >= SSD1306_WIDTH || y >= SSD1306_HEIGHT) {
 8000a20:	d410      	bmi.n	8000a44 <ssd1306_DrawPixel+0x28>
 8000a22:	293f      	cmp	r1, #63	@ 0x3f
 8000a24:	d80e      	bhi.n	8000a44 <ssd1306_DrawPixel+0x28>
        return;
    }
   
    // Draw in the right color
    if(color == White) {
        SSD1306_Buffer[x + (y / 8) * SSD1306_WIDTH] |= 1 << (y % 8);
 8000a26:	2401      	movs	r4, #1
 8000a28:	08cb      	lsrs	r3, r1, #3
 8000a2a:	4d07      	ldr	r5, [pc, #28]	@ (8000a48 <ssd1306_DrawPixel+0x2c>)
 8000a2c:	eb00 10c3 	add.w	r0, r0, r3, lsl #7
 8000a30:	5c2b      	ldrb	r3, [r5, r0]
 8000a32:	f001 0107 	and.w	r1, r1, #7
 8000a36:	fa04 f101 	lsl.w	r1, r4, r1
    if(color == White) {
 8000a3a:	42a2      	cmp	r2, r4
        SSD1306_Buffer[x + (y / 8) * SSD1306_WIDTH] |= 1 << (y % 8);
 8000a3c:	bf0c      	ite	eq
 8000a3e:	430b      	orreq	r3, r1
    } else { 
        SSD1306_Buffer[x + (y / 8) * SSD1306_WIDTH] &= ~(1 << (y % 8));
 8000a40:	438b      	bicne	r3, r1
 8000a42:	542b      	strb	r3, [r5, r0]
    }
}
 8000a44:	bd30      	pop	{r4, r5, pc}
 8000a46:	bf00      	nop
 8000a48:	2000079a 	.word	0x2000079a

08000a4c <ssd1306_WriteChar>:
 * Draw 1 char to the screen buffer
 * ch       => char om weg te schrijven
 * Font     => Font waarmee we gaan schrijven
 * color    => Black or White
 */
char ssd1306_WriteChar(char ch, FontDef Font, SSD1306_COLOR color) {
 8000a4c:	e92d 4ff0 	stmdb	sp!, {r4, r5, r6, r7, r8, r9, sl, fp, lr}
 8000a50:	4604      	mov	r4, r0
 8000a52:	b087      	sub	sp, #28
 8000a54:	a806      	add	r0, sp, #24
    uint32_t i, b, j;
    
    // Check if character is valid
    if (ch < 32 || ch > 255)
 8000a56:	2c1f      	cmp	r4, #31
char ssd1306_WriteChar(char ch, FontDef Font, SSD1306_COLOR color) {
 8000a58:	e900 0006 	stmdb	r0, {r1, r2}
 8000a5c:	9301      	str	r3, [sp, #4]
    if (ch < 32 || ch > 255)
 8000a5e:	d944      	bls.n	8000aea <ssd1306_WriteChar+0x9e>
        return 0;

    // Check remaining space on current line
    if (SSD1306_WIDTH < (SSD1306.CurrentX + Font.FontWidth) ||
 8000a60:	f8df 908c 	ldr.w	r9, [pc, #140]	@ 8000af0 <ssd1306_WriteChar+0xa4>
 8000a64:	f89d 6010 	ldrb.w	r6, [sp, #16]
 8000a68:	f8b9 a000 	ldrh.w	sl, [r9]
 8000a6c:	eb0a 0306 	add.w	r3, sl, r6
 8000a70:	2b80      	cmp	r3, #128	@ 0x80
 8000a72:	dc3a      	bgt.n	8000aea <ssd1306_WriteChar+0x9e>
        SSD1306_HEIGHT < (SSD1306.CurrentY + Font.FontHeight))
 8000a74:	f8b9 3002 	ldrh.w	r3, [r9, #2]
 8000a78:	f89d b011 	ldrb.w	fp, [sp, #17]
 8000a7c:	9300      	str	r3, [sp, #0]
 8000a7e:	eb03 020b 	add.w	r2, r3, fp
    if (SSD1306_WIDTH < (SSD1306.CurrentX + Font.FontWidth) ||
 8000a82:	2a40      	cmp	r2, #64	@ 0x40
 8000a84:	dc31      	bgt.n	8000aea <ssd1306_WriteChar+0x9e>
        // Not enough space on current line
        return 0;
    }
    
    // Use the font to write
    for(i = 0; i < Font.FontHeight; i++) {
 8000a86:	f04f 0800 	mov.w	r8, #0
        b = Font.data[(ch - 32) * Font.FontHeight + i];
 8000a8a:	f1a4 0520 	sub.w	r5, r4, #32
 8000a8e:	fb0b f505 	mul.w	r5, fp, r5
 8000a92:	006d      	lsls	r5, r5, #1
    for(i = 0; i < Font.FontHeight; i++) {
 8000a94:	45c3      	cmp	fp, r8
 8000a96:	d806      	bhi.n	8000aa6 <ssd1306_WriteChar+0x5a>
            }
        }
    }
    
    // The current space is now taken
    SSD1306.CurrentX += Font.FontWidth;
 8000a98:	4456      	add	r6, sl
 8000a9a:	f8a9 6000 	strh.w	r6, [r9]
    
    // Return written char for validation
    return ch;
}
 8000a9e:	4620      	mov	r0, r4
 8000aa0:	b007      	add	sp, #28
 8000aa2:	e8bd 8ff0 	ldmia.w	sp!, {r4, r5, r6, r7, r8, r9, sl, fp, pc}
        for(j = 0; j < Font.FontWidth; j++) {
 8000aa6:	2700      	movs	r7, #0
        b = Font.data[(ch - 32) * Font.FontHeight + i];
 8000aa8:	9a05      	ldr	r2, [sp, #20]
 8000aaa:	5b53      	ldrh	r3, [r2, r5]
 8000aac:	9303      	str	r3, [sp, #12]
                ssd1306_DrawPixel(SSD1306.CurrentX + j, (SSD1306.CurrentY + i), (SSD1306_COLOR) color);
 8000aae:	9b00      	ldr	r3, [sp, #0]
 8000ab0:	eb08 0203 	add.w	r2, r8, r3
 8000ab4:	b2d3      	uxtb	r3, r2
 8000ab6:	9302      	str	r3, [sp, #8]
        for(j = 0; j < Font.FontWidth; j++) {
 8000ab8:	42be      	cmp	r6, r7
 8000aba:	d803      	bhi.n	8000ac4 <ssd1306_WriteChar+0x78>
    for(i = 0; i < Font.FontHeight; i++) {
 8000abc:	f108 0801 	add.w	r8, r8, #1
 8000ac0:	3502      	adds	r5, #2
 8000ac2:	e7e7      	b.n	8000a94 <ssd1306_WriteChar+0x48>
            if((b << j) & 0x8000)  {
 8000ac4:	9b03      	ldr	r3, [sp, #12]
                ssd1306_DrawPixel(SSD1306.CurrentX + j, (SSD1306.CurrentY + i), (SSD1306_COLOR) color);
 8000ac6:	eb07 000a 	add.w	r0, r7, sl
            if((b << j) & 0x8000)  {
 8000aca:	fa03 f207 	lsl.w	r2, r3, r7
 8000ace:	0413      	lsls	r3, r2, #16
                ssd1306_DrawPixel(SSD1306.CurrentX + j, (SSD1306.CurrentY + i), (SSD1306_COLOR)!color);
 8000ad0:	bf56      	itet	pl
 8000ad2:	9b01      	ldrpl	r3, [sp, #4]
                ssd1306_DrawPixel(SSD1306.CurrentX + j, (SSD1306.CurrentY + i), (SSD1306_COLOR) color);
 8000ad4:	9a01      	ldrmi	r2, [sp, #4]
                ssd1306_DrawPixel(SSD1306.CurrentX + j, (SSD1306.CurrentY + i), (SSD1306_COLOR)!color);
 8000ad6:	fab3 f283 	clzpl	r2, r3
 8000ada:	9902      	ldr	r1, [sp, #8]
                ssd1306_DrawPixel(SSD1306.CurrentX + j, (SSD1306.CurrentY + i), (SSD1306_COLOR) color);
 8000adc:	b2c0      	uxtb	r0, r0
                ssd1306_DrawPixel(SSD1306.CurrentX + j, (SSD1306.CurrentY + i), (SSD1306_COLOR)!color);
 8000ade:	bf58      	it	pl
 8000ae0:	0952      	lsrpl	r2, r2, #5
 8000ae2:	f7ff ff9b 	bl	8000a1c <ssd1306_DrawPixel>
        for(j = 0; j < Font.FontWidth; j++) {
 8000ae6:	3701      	adds	r7, #1
 8000ae8:	e7e6      	b.n	8000ab8 <ssd1306_WriteChar+0x6c>
        return 0;
 8000aea:	2400      	movs	r4, #0
 8000aec:	e7d7      	b.n	8000a9e <ssd1306_WriteChar+0x52>
 8000aee:	bf00      	nop
 8000af0:	20000794 	.word	0x20000794

08000af4 <ssd1306_WriteString>:

/* Write full string to screenbuffer */
char ssd1306_WriteString(char* str, FontDef Font, SSD1306_COLOR color) {
 8000af4:	b573      	push	{r0, r1, r4, r5, r6, lr}
 8000af6:	466d      	mov	r5, sp
 8000af8:	461e      	mov	r6, r3
 8000afa:	e885 0006 	stmia.w	r5, {r1, r2}
 8000afe:	1e44      	subs	r4, r0, #1
    while (*str) {
 8000b00:	f814 0f01 	ldrb.w	r0, [r4, #1]!
 8000b04:	b140      	cbz	r0, 8000b18 <ssd1306_WriteString+0x24>
        if (ssd1306_WriteChar(*str, Font, color) != *str) {
 8000b06:	e895 0006 	ldmia.w	r5, {r1, r2}
 8000b0a:	4633      	mov	r3, r6
 8000b0c:	f7ff ff9e 	bl	8000a4c <ssd1306_WriteChar>
 8000b10:	4603      	mov	r3, r0
 8000b12:	7820      	ldrb	r0, [r4, #0]
 8000b14:	4283      	cmp	r3, r0
 8000b16:	d0f3      	beq.n	8000b00 <ssd1306_WriteString+0xc>
        str++;
    }
    
    // Everything ok
    return *str;
}
 8000b18:	b002      	add	sp, #8
 8000b1a:	bd70      	pop	{r4, r5, r6, pc}

08000b1c <ssd1306_SetCursor>:

/* Position the cursor */
void ssd1306_SetCursor(uint8_t x, uint8_t y) {
    SSD1306.CurrentX = x;
 8000b1c:	4b01      	ldr	r3, [pc, #4]	@ (8000b24 <ssd1306_SetCursor+0x8>)
 8000b1e:	8018      	strh	r0, [r3, #0]
    SSD1306.CurrentY = y;
 8000b20:	8059      	strh	r1, [r3, #2]
}
 8000b22:	4770      	bx	lr
 8000b24:	20000794 	.word	0x20000794

08000b28 <ssd1306_Line>:

/* Draw line by Bresenhem's algorithm */
void ssd1306_Line(uint8_t x1, uint8_t y1, uint8_t x2, uint8_t y2, SSD1306_COLOR color) {
 8000b28:	e92d 4ff7 	stmdb	sp!, {r0, r1, r2, r4, r5, r6, r7, r8, r9, sl, fp, lr}
 8000b2c:	4690      	mov	r8, r2
    int32_t deltaX = abs(x2 - x1);
 8000b2e:	eba8 0900 	sub.w	r9, r8, r0
    int32_t deltaY = abs(y2 - y1);
 8000b32:	eba3 0a01 	sub.w	sl, r3, r1
    int32_t deltaX = abs(x2 - x1);
 8000b36:	f1b9 0f00 	cmp.w	r9, #0
void ssd1306_Line(uint8_t x1, uint8_t y1, uint8_t x2, uint8_t y2, SSD1306_COLOR color) {
 8000b3a:	461e      	mov	r6, r3
    int32_t deltaX = abs(x2 - x1);
 8000b3c:	bfb8      	it	lt
 8000b3e:	f1c9 0900 	rsblt	r9, r9, #0
    int32_t deltaY = abs(y2 - y1);
 8000b42:	f1ba 0f00 	cmp.w	sl, #0
 8000b46:	bfb8      	it	lt
 8000b48:	f1ca 0a00 	rsblt	sl, sl, #0
    int32_t signX = ((x1 < x2) ? 1 : -1);
 8000b4c:	4580      	cmp	r8, r0
 8000b4e:	bf8c      	ite	hi
 8000b50:	2301      	movhi	r3, #1
 8000b52:	f04f 33ff 	movls.w	r3, #4294967295
void ssd1306_Line(uint8_t x1, uint8_t y1, uint8_t x2, uint8_t y2, SSD1306_COLOR color) {
 8000b56:	4605      	mov	r5, r0
 8000b58:	460c      	mov	r4, r1
    int32_t signY = ((y1 < y2) ? 1 : -1);
 8000b5a:	428e      	cmp	r6, r1
 8000b5c:	bf8c      	ite	hi
 8000b5e:	f04f 0b01 	movhi.w	fp, #1
 8000b62:	f04f 3bff 	movls.w	fp, #4294967295
    int32_t error = deltaX - deltaY;
    int32_t error2;
    
    ssd1306_DrawPixel(x2, y2, color);
 8000b66:	4640      	mov	r0, r8
 8000b68:	4631      	mov	r1, r6
void ssd1306_Line(uint8_t x1, uint8_t y1, uint8_t x2, uint8_t y2, SSD1306_COLOR color) {
 8000b6a:	f89d 2030 	ldrb.w	r2, [sp, #48]	@ 0x30
    int32_t signX = ((x1 < x2) ? 1 : -1);
 8000b6e:	9300      	str	r3, [sp, #0]
    int32_t error = deltaX - deltaY;
 8000b70:	eba9 070a 	sub.w	r7, r9, sl
    ssd1306_DrawPixel(x2, y2, color);
 8000b74:	f7ff ff52 	bl	8000a1c <ssd1306_DrawPixel>

    while((x1 != x2) || (y1 != y2)) {
        ssd1306_DrawPixel(x1, y1, color);
        error2 = error * 2;
        if(error2 > -deltaY) {
 8000b78:	f1ca 0300 	rsb	r3, sl, #0
    while((x1 != x2) || (y1 != y2)) {
 8000b7c:	4545      	cmp	r5, r8
 8000b7e:	d104      	bne.n	8000b8a <ssd1306_Line+0x62>
 8000b80:	42b4      	cmp	r4, r6
 8000b82:	d102      	bne.n	8000b8a <ssd1306_Line+0x62>
            error += deltaX;
            y1 += signY;
        }
    }
    return;
}
 8000b84:	b003      	add	sp, #12
 8000b86:	e8bd 8ff0 	ldmia.w	sp!, {r4, r5, r6, r7, r8, r9, sl, fp, pc}
        ssd1306_DrawPixel(x1, y1, color);
 8000b8a:	4621      	mov	r1, r4
 8000b8c:	4628      	mov	r0, r5
 8000b8e:	9301      	str	r3, [sp, #4]
 8000b90:	f7ff ff44 	bl	8000a1c <ssd1306_DrawPixel>
        if(error2 > -deltaY) {
 8000b94:	9b01      	ldr	r3, [sp, #4]
        error2 = error * 2;
 8000b96:	0079      	lsls	r1, r7, #1
        if(error2 > -deltaY) {
 8000b98:	ebb3 0f47 	cmp.w	r3, r7, lsl #1
            x1 += signX;
 8000b9c:	bfbf      	itttt	lt
 8000b9e:	9800      	ldrlt	r0, [sp, #0]
            error -= deltaY;
 8000ba0:	eba7 070a 	sublt.w	r7, r7, sl
            x1 += signX;
 8000ba4:	182d      	addlt	r5, r5, r0
 8000ba6:	b2ed      	uxtblt	r5, r5
        if(error2 < deltaX) {
 8000ba8:	4589      	cmp	r9, r1
            y1 += signY;
 8000baa:	bfc2      	ittt	gt
 8000bac:	445c      	addgt	r4, fp
            error += deltaX;
 8000bae:	444f      	addgt	r7, r9
            y1 += signY;
 8000bb0:	b2e4      	uxtbgt	r4, r4
 8000bb2:	e7e3      	b.n	8000b7c <ssd1306_Line+0x54>

08000bb4 <ssd1306_DrawRectangle>:

    return;
}

/* Draw a rectangle */
void ssd1306_DrawRectangle(uint8_t x1, uint8_t y1, uint8_t x2, uint8_t y2, SSD1306_COLOR color) {
 8000bb4:	e92d 41f3 	stmdb	sp!, {r0, r1, r4, r5, r6, r7, r8, lr}
 8000bb8:	461c      	mov	r4, r3
 8000bba:	4616      	mov	r6, r2
 8000bbc:	460d      	mov	r5, r1
 8000bbe:	4607      	mov	r7, r0
 8000bc0:	f89d 8020 	ldrb.w	r8, [sp, #32]
    ssd1306_Line(x1,y1,x2,y1,color);
 8000bc4:	460b      	mov	r3, r1
 8000bc6:	f8cd 8000 	str.w	r8, [sp]
 8000bca:	f7ff ffad 	bl	8000b28 <ssd1306_Line>
    ssd1306_Line(x2,y1,x2,y2,color);
 8000bce:	4623      	mov	r3, r4
 8000bd0:	4632      	mov	r2, r6
 8000bd2:	4629      	mov	r1, r5
 8000bd4:	4630      	mov	r0, r6
 8000bd6:	f8cd 8000 	str.w	r8, [sp]
 8000bda:	f7ff ffa5 	bl	8000b28 <ssd1306_Line>
    ssd1306_Line(x2,y2,x1,y2,color);
 8000bde:	4623      	mov	r3, r4
 8000be0:	463a      	mov	r2, r7
 8000be2:	4621      	mov	r1, r4
 8000be4:	4630      	mov	r0, r6
 8000be6:	f8cd 8000 	str.w	r8, [sp]
 8000bea:	f7ff ff9d 	bl	8000b28 <ssd1306_Line>
    ssd1306_Line(x1,y2,x1,y1,color);
 8000bee:	462b      	mov	r3, r5
 8000bf0:	463a      	mov	r2, r7
 8000bf2:	4621      	mov	r1, r4
 8000bf4:	4638      	mov	r0, r7
 8000bf6:	f8cd 8020 	str.w	r8, [sp, #32]

    return;
}
 8000bfa:	b002      	add	sp, #8
 8000bfc:	e8bd 41f0 	ldmia.w	sp!, {r4, r5, r6, r7, r8, lr}
    ssd1306_Line(x1,y2,x1,y1,color);
 8000c00:	f7ff bf92 	b.w	8000b28 <ssd1306_Line>

08000c04 <ssd1306_DrawBitmap>:
    }
    return;
}

/* Draw a bitmap */
void ssd1306_DrawBitmap(uint8_t x, uint8_t y, const unsigned char* bitmap, uint8_t w, uint8_t h, SSD1306_COLOR color) {
 8000c04:	e92d 4ff7 	stmdb	sp!, {r0, r1, r2, r4, r5, r6, r7, r8, r9, sl, fp, lr}
    int16_t byteWidth = (w + 7) / 8; // Bitmap scanline pad = whole byte
    uint8_t byte = 0;

    if (x >= SSD1306_WIDTH || y >= SSD1306_HEIGHT) {
 8000c08:	f010 0f80 	tst.w	r0, #128	@ 0x80
void ssd1306_DrawBitmap(uint8_t x, uint8_t y, const unsigned char* bitmap, uint8_t w, uint8_t h, SSD1306_COLOR color) {
 8000c0c:	9200      	str	r2, [sp, #0]
 8000c0e:	4681      	mov	r9, r0
 8000c10:	460c      	mov	r4, r1
 8000c12:	469a      	mov	sl, r3
 8000c14:	f89d 2034 	ldrb.w	r2, [sp, #52]	@ 0x34
    if (x >= SSD1306_WIDTH || y >= SSD1306_HEIGHT) {
 8000c18:	d12b      	bne.n	8000c72 <ssd1306_DrawBitmap+0x6e>
 8000c1a:	293f      	cmp	r1, #63	@ 0x3f
 8000c1c:	d829      	bhi.n	8000c72 <ssd1306_DrawBitmap+0x6e>
    int16_t byteWidth = (w + 7) / 8; // Bitmap scanline pad = whole byte
 8000c1e:	2700      	movs	r7, #0
    uint8_t byte = 0;
 8000c20:	463d      	mov	r5, r7
 8000c22:	f89d 6030 	ldrb.w	r6, [sp, #48]	@ 0x30
    int16_t byteWidth = (w + 7) / 8; // Bitmap scanline pad = whole byte
 8000c26:	f103 0b07 	add.w	fp, r3, #7
 8000c2a:	440e      	add	r6, r1
 8000c2c:	ea4f 0beb 	mov.w	fp, fp, asr #3
 8000c30:	b2f6      	uxtb	r6, r6
        return;
    }

    for (uint8_t j = 0; j < h; j++, y++) {
 8000c32:	42b4      	cmp	r4, r6
 8000c34:	d01d      	beq.n	8000c72 <ssd1306_DrawBitmap+0x6e>
        for (uint8_t i = 0; i < w; i++) {
            if (i & 7) {
                byte <<= 1;
            } else {
                byte = (*(const unsigned char *)(&bitmap[j * byteWidth + i / 8]));
 8000c36:	9b00      	ldr	r3, [sp, #0]
    for (uint8_t j = 0; j < h; j++, y++) {
 8000c38:	f04f 0800 	mov.w	r8, #0
                byte = (*(const unsigned char *)(&bitmap[j * byteWidth + i / 8]));
 8000c3c:	443b      	add	r3, r7
 8000c3e:	e010      	b.n	8000c62 <ssd1306_DrawBitmap+0x5e>
            if (i & 7) {
 8000c40:	0741      	lsls	r1, r0, #29
                byte = (*(const unsigned char *)(&bitmap[j * byteWidth + i / 8]));
 8000c42:	bf0b      	itete	eq
 8000c44:	08c1      	lsreq	r1, r0, #3
                byte <<= 1;
 8000c46:	006d      	lslne	r5, r5, #1
                byte = (*(const unsigned char *)(&bitmap[j * byteWidth + i / 8]));
 8000c48:	5c5d      	ldrbeq	r5, [r3, r1]
                byte <<= 1;
 8000c4a:	b2ed      	uxtbne	r5, r5
            }

            if (byte & 0x80) {
 8000c4c:	0629      	lsls	r1, r5, #24
 8000c4e:	d506      	bpl.n	8000c5e <ssd1306_DrawBitmap+0x5a>
                ssd1306_DrawPixel(x + i, y, color);
 8000c50:	4448      	add	r0, r9
 8000c52:	4621      	mov	r1, r4
 8000c54:	b2c0      	uxtb	r0, r0
 8000c56:	9301      	str	r3, [sp, #4]
 8000c58:	f7ff fee0 	bl	8000a1c <ssd1306_DrawPixel>
 8000c5c:	9b01      	ldr	r3, [sp, #4]
        for (uint8_t i = 0; i < w; i++) {
 8000c5e:	f108 0801 	add.w	r8, r8, #1
 8000c62:	45d0      	cmp	r8, sl
 8000c64:	fa5f f088 	uxtb.w	r0, r8
 8000c68:	d1ea      	bne.n	8000c40 <ssd1306_DrawBitmap+0x3c>
    for (uint8_t j = 0; j < h; j++, y++) {
 8000c6a:	3401      	adds	r4, #1
 8000c6c:	b2e4      	uxtb	r4, r4
 8000c6e:	445f      	add	r7, fp
 8000c70:	e7df      	b.n	8000c32 <ssd1306_DrawBitmap+0x2e>
            }
        }
    }
    return;
}
 8000c72:	b003      	add	sp, #12
 8000c74:	e8bd 8ff0 	ldmia.w	sp!, {r4, r5, r6, r7, r8, r9, sl, fp, pc}

08000c78 <ssd1306_SetContrast>:

void ssd1306_SetContrast(const uint8_t value) {
 8000c78:	b510      	push	{r4, lr}
 8000c7a:	4604      	mov	r4, r0
    const uint8_t kSetContrastControlRegister = 0x81;
    ssd1306_WriteCommand(kSetContrastControlRegister);
 8000c7c:	2081      	movs	r0, #129	@ 0x81
 8000c7e:	f7ff fe7f 	bl	8000980 <ssd1306_WriteCommand>
    ssd1306_WriteCommand(value);
 8000c82:	4620      	mov	r0, r4
}
 8000c84:	e8bd 4010 	ldmia.w	sp!, {r4, lr}
    ssd1306_WriteCommand(value);
 8000c88:	f7ff be7a 	b.w	8000980 <ssd1306_WriteCommand>

08000c8c <ssd1306_SetDisplayOn>:

void ssd1306_SetDisplayOn(const uint8_t on) {
    uint8_t value;
    if (on) {
        value = 0xAF;   // Display on
        SSD1306.DisplayOn = 1;
 8000c8c:	2800      	cmp	r0, #0
    if (on) {
 8000c8e:	4603      	mov	r3, r0
        SSD1306.DisplayOn = 1;
 8000c90:	bf0c      	ite	eq
 8000c92:	4603      	moveq	r3, r0
 8000c94:	2301      	movne	r3, #1
 8000c96:	4a03      	ldr	r2, [pc, #12]	@ (8000ca4 <ssd1306_SetDisplayOn+0x18>)
 8000c98:	bf0c      	ite	eq
 8000c9a:	20ae      	moveq	r0, #174	@ 0xae
 8000c9c:	20af      	movne	r0, #175	@ 0xaf
 8000c9e:	7153      	strb	r3, [r2, #5]
    } else {
        value = 0xAE;   // Display off
        SSD1306.DisplayOn = 0;
    }
    ssd1306_WriteCommand(value);
 8000ca0:	f7ff be6e 	b.w	8000980 <ssd1306_WriteCommand>
 8000ca4:	20000794 	.word	0x20000794

08000ca8 <ssd1306_Init>:
void ssd1306_Init(void) {
 8000ca8:	b508      	push	{r3, lr}
    HAL_Delay(100);
 8000caa:	2064      	movs	r0, #100	@ 0x64
 8000cac:	f000 f96c 	bl	8000f88 <HAL_Delay>
    ssd1306_SetDisplayOn(0); //display off
 8000cb0:	2000      	movs	r0, #0
 8000cb2:	f7ff ffeb 	bl	8000c8c <ssd1306_SetDisplayOn>
    ssd1306_WriteCommand(0x20); //Set Memory Addressing Mode
 8000cb6:	2020      	movs	r0, #32
 8000cb8:	f7ff fe62 	bl	8000980 <ssd1306_WriteCommand>
    ssd1306_WriteCommand(0x00); // 00b,Horizontal Addressing Mode; 01b,Vertical Addressing Mode;
 8000cbc:	2000      	movs	r0, #0
 8000cbe:	f7ff fe5f 	bl	8000980 <ssd1306_WriteCommand>
    ssd1306_WriteCommand(0xB0); //Set Page Start Address for Page Addressing Mode,0-7
 8000cc2:	20b0      	movs	r0, #176	@ 0xb0
 8000cc4:	f7ff fe5c 	bl	8000980 <ssd1306_WriteCommand>
    ssd1306_WriteCommand(0xC8); //Set COM Output Scan Direction
 8000cc8:	20c8      	movs	r0, #200	@ 0xc8
 8000cca:	f7ff fe59 	bl	8000980 <ssd1306_WriteCommand>
    ssd1306_WriteCommand(0x00); //---set low column address
 8000cce:	2000      	movs	r0, #0
 8000cd0:	f7ff fe56 	bl	8000980 <ssd1306_WriteCommand>
    ssd1306_WriteCommand(0x10); //---set high column address
 8000cd4:	2010      	movs	r0, #16
 8000cd6:	f7ff fe53 	bl	8000980 <ssd1306_WriteCommand>
    ssd1306_WriteCommand(0x40); //--set start line address - CHECK
 8000cda:	2040      	movs	r0, #64	@ 0x40
 8000cdc:	f7ff fe50 	bl	8000980 <ssd1306_WriteCommand>
    ssd1306_SetContrast(0xFF);
 8000ce0:	20ff      	movs	r0, #255	@ 0xff
 8000ce2:	f7ff ffc9 	bl	8000c78 <ssd1306_SetContrast>
    ssd1306_WriteCommand(0xA1); //--set segment re-map 0 to 127 - CHECK
 8000ce6:	20a1      	movs	r0, #161	@ 0xa1
 8000ce8:	f7ff fe4a 	bl	8000980 <ssd1306_WriteCommand>
    ssd1306_WriteCommand(0xA6); //--set normal color
 8000cec:	20a6      	movs	r0, #166	@ 0xa6
 8000cee:	f7ff fe47 	bl	8000980 <ssd1306_WriteCommand>
    ssd1306_WriteCommand(0xA8); //--set multiplex ratio(1 to 64) - CHECK
 8000cf2:	20a8      	movs	r0, #168	@ 0xa8
 8000cf4:	f7ff fe44 	bl	8000980 <ssd1306_WriteCommand>
    ssd1306_WriteCommand(0x3F); //
 8000cf8:	203f      	movs	r0, #63	@ 0x3f
 8000cfa:	f7ff fe41 	bl	8000980 <ssd1306_WriteCommand>
    ssd1306_WriteCommand(0xA4); //0xa4,Output follows RAM content;0xa5,Output ignores RAM content
 8000cfe:	20a4      	movs	r0, #164	@ 0xa4
 8000d00:	f7ff fe3e 	bl	8000980 <ssd1306_WriteCommand>
    ssd1306_WriteCommand(0xD3); //-set display offset - CHECK
 8000d04:	20d3      	movs	r0, #211	@ 0xd3
 8000d06:	f7ff fe3b 	bl	8000980 <ssd1306_WriteCommand>
    ssd1306_WriteCommand(0x00); //-not offset
 8000d0a:	2000      	movs	r0, #0
 8000d0c:	f7ff fe38 	bl	8000980 <ssd1306_WriteCommand>
    ssd1306_WriteCommand(0xD5); //--set display clock divide ratio/oscillator frequency
 8000d10:	20d5      	movs	r0, #213	@ 0xd5
 8000d12:	f7ff fe35 	bl	8000980 <ssd1306_WriteCommand>
    ssd1306_WriteCommand(0xF0); //--set divide ratio
 8000d16:	20f0      	movs	r0, #240	@ 0xf0
 8000d18:	f7ff fe32 	bl	8000980 <ssd1306_WriteCommand>
    ssd1306_WriteCommand(0xD9); //--set pre-charge period
 8000d1c:	20d9      	movs	r0, #217	@ 0xd9
 8000d1e:	f7ff fe2f 	bl	8000980 <ssd1306_WriteCommand>
    ssd1306_WriteCommand(0x22); //
 8000d22:	2022      	movs	r0, #34	@ 0x22
 8000d24:	f7ff fe2c 	bl	8000980 <ssd1306_WriteCommand>
    ssd1306_WriteCommand(0xDA); //--set com pins hardware configuration - CHECK
 8000d28:	20da      	movs	r0, #218	@ 0xda
 8000d2a:	f7ff fe29 	bl	8000980 <ssd1306_WriteCommand>
    ssd1306_WriteCommand(0x12);
 8000d2e:	2012      	movs	r0, #18
 8000d30:	f7ff fe26 	bl	8000980 <ssd1306_WriteCommand>
    ssd1306_WriteCommand(0xDB); //--set vcomh
 8000d34:	20db      	movs	r0, #219	@ 0xdb
 8000d36:	f7ff fe23 	bl	8000980 <ssd1306_WriteCommand>
    ssd1306_WriteCommand(0x20); //0x20,0.77xVcc
 8000d3a:	2020      	movs	r0, #32
 8000d3c:	f7ff fe20 	bl	8000980 <ssd1306_WriteCommand>
    ssd1306_WriteCommand(0x8D); //--set DC-DC enable
 8000d40:	208d      	movs	r0, #141	@ 0x8d
 8000d42:	f7ff fe1d 	bl	8000980 <ssd1306_WriteCommand>
    ssd1306_WriteCommand(0x14); //
 8000d46:	2014      	movs	r0, #20
 8000d48:	f7ff fe1a 	bl	8000980 <ssd1306_WriteCommand>
    ssd1306_SetDisplayOn(1); //--turn on SSD1306 panel
 8000d4c:	2001      	movs	r0, #1
 8000d4e:	f7ff ff9d 	bl	8000c8c <ssd1306_SetDisplayOn>
    ssd1306_Fill(Black);
 8000d52:	2000      	movs	r0, #0
 8000d54:	f7ff fe3c 	bl	80009d0 <ssd1306_Fill>
    ssd1306_UpdateScreen();
 8000d58:	f7ff fe46 	bl	80009e8 <ssd1306_UpdateScreen>
    SSD1306.CurrentX = 0;
 8000d5c:	2200      	movs	r2, #0
 8000d5e:	4b03      	ldr	r3, [pc, #12]	@ (8000d6c <ssd1306_Init+0xc4>)
 8000d60:	801a      	strh	r2, [r3, #0]
    SSD1306.CurrentY = 0;
 8000d62:	805a      	strh	r2, [r3, #2]
    SSD1306.Initialized = 1;
 8000d64:	2201      	movs	r2, #1
 8000d66:	711a      	strb	r2, [r3, #4]
}
 8000d68:	bd08      	pop	{r3, pc}
 8000d6a:	bf00      	nop
 8000d6c:	20000794 	.word	0x20000794

08000d70 <ssd1306_GetDisplayOn>:
}

uint8_t ssd1306_GetDisplayOn() {
    return SSD1306.DisplayOn;
}
 8000d70:	4b01      	ldr	r3, [pc, #4]	@ (8000d78 <ssd1306_GetDisplayOn+0x8>)
 8000d72:	7958      	ldrb	r0, [r3, #5]
 8000d74:	4770      	bx	lr
 8000d76:	bf00      	nop
 8000d78:	20000794 	.word	0x20000794

08000d7c <HAL_MspInit>:

  /* USER CODE BEGIN MspInit 0 */

  /* USER CODE END MspInit 0 */

  __HAL_RCC_AFIO_CLK_ENABLE();
 8000d7c:	4b11      	ldr	r3, [pc, #68]	@ (8000dc4 <HAL_MspInit+0x48>)
{
 8000d7e:	b507      	push	{r0, r1, r2, lr}
  __HAL_RCC_AFIO_CLK_ENABLE();
 8000d80:	699a      	ldr	r2, [r3, #24]
  __HAL_RCC_PWR_CLK_ENABLE();

  /* System interrupt init*/
  /* PendSV_IRQn interrupt configuration */
  HAL_NVIC_SetPriority(PendSV_IRQn, 15, 0);
 8000d82:	210f      	movs	r1, #15
  __HAL_RCC_AFIO_CLK_ENABLE();
 8000d84:	f042 0201 	orr.w	r2, r2, #1
 8000d88:	619a      	str	r2, [r3, #24]
 8000d8a:	699a      	ldr	r2, [r3, #24]
  HAL_NVIC_SetPriority(PendSV_IRQn, 15, 0);
 8000d8c:	f06f 0001 	mvn.w	r0, #1
  __HAL_RCC_AFIO_CLK_ENABLE();
 8000d90:	f002 0201 	and.w	r2, r2, #1
 8000d94:	9200      	str	r2, [sp, #0]
 8000d96:	9a00      	ldr	r2, [sp, #0]
  __HAL_RCC_PWR_CLK_ENABLE();
 8000d98:	69da      	ldr	r2, [r3, #28]
 8000d9a:	f042 5280 	orr.w	r2, r2, #268435456	@ 0x10000000
 8000d9e:	61da      	str	r2, [r3, #28]
 8000da0:	69db      	ldr	r3, [r3, #28]
  HAL_NVIC_SetPriority(PendSV_IRQn, 15, 0);
 8000da2:	2200      	movs	r2, #0
  __HAL_RCC_PWR_CLK_ENABLE();
 8000da4:	f003 5380 	and.w	r3, r3, #268435456	@ 0x10000000
 8000da8:	9301      	str	r3, [sp, #4]
 8000daa:	9b01      	ldr	r3, [sp, #4]
  HAL_NVIC_SetPriority(PendSV_IRQn, 15, 0);
 8000dac:	f000 f910 	bl	8000fd0 <HAL_NVIC_SetPriority>

  /** NOJTAG: JTAG-DP Disabled and SW-DP Enabled
  */
  __HAL_AFIO_REMAP_SWJ_NOJTAG();
 8000db0:	4a05      	ldr	r2, [pc, #20]	@ (8000dc8 <HAL_MspInit+0x4c>)
 8000db2:	6853      	ldr	r3, [r2, #4]
 8000db4:	f023 63e0 	bic.w	r3, r3, #117440512	@ 0x7000000
 8000db8:	f043 7300 	orr.w	r3, r3, #33554432	@ 0x2000000
 8000dbc:	6053      	str	r3, [r2, #4]

  /* USER CODE BEGIN MspInit 1 */

  /* USER CODE END MspInit 1 */
}
 8000dbe:	b003      	add	sp, #12
 8000dc0:	f85d fb04 	ldr.w	pc, [sp], #4
 8000dc4:	40021000 	.word	0x40021000
 8000dc8:	40010000 	.word	0x40010000

08000dcc <HAL_I2C_MspInit>:
* This function configures the hardware resources used in this example
* @param hi2c: I2C handle pointer
* @retval None
*/
void HAL_I2C_MspInit(I2C_HandleTypeDef* hi2c)
{
 8000dcc:	b510      	push	{r4, lr}
 8000dce:	4604      	mov	r4, r0
 8000dd0:	b086      	sub	sp, #24
  GPIO_InitTypeDef GPIO_InitStruct = {0};
 8000dd2:	2210      	movs	r2, #16
 8000dd4:	2100      	movs	r1, #0
 8000dd6:	a802      	add	r0, sp, #8
 8000dd8:	f002 fd2a 	bl	8003830 <memset>
  if(hi2c->Instance==I2C1)
 8000ddc:	6822      	ldr	r2, [r4, #0]
 8000dde:	4b15      	ldr	r3, [pc, #84]	@ (8000e34 <HAL_I2C_MspInit+0x68>)
 8000de0:	429a      	cmp	r2, r3
 8000de2:	d124      	bne.n	8000e2e <HAL_I2C_MspInit+0x62>
  {
  /* USER CODE BEGIN I2C1_MspInit 0 */

  /* USER CODE END I2C1_MspInit 0 */

    __HAL_RCC_GPIOB_CLK_ENABLE();
 8000de4:	4c14      	ldr	r4, [pc, #80]	@ (8000e38 <HAL_I2C_MspInit+0x6c>)
    /**I2C1 GPIO Configuration
    PB8     ------> I2C1_SCL
    PB9     ------> I2C1_SDA
    */
    GPIO_InitStruct.Pin = GPIO_PIN_8|GPIO_PIN_9;
    GPIO_InitStruct.Mode = GPIO_MODE_AF_OD;
 8000de6:	f44f 7240 	mov.w	r2, #768	@ 0x300
    __HAL_RCC_GPIOB_CLK_ENABLE();
 8000dea:	69a3      	ldr	r3, [r4, #24]
    GPIO_InitStruct.Pull = GPIO_NOPULL;
    GPIO_InitStruct.Speed = GPIO_SPEED_FREQ_HIGH;
    HAL_GPIO_Init(GPIOB, &GPIO_InitStruct);
 8000dec:	4813      	ldr	r0, [pc, #76]	@ (8000e3c <HAL_I2C_MspInit+0x70>)
    __HAL_RCC_GPIOB_CLK_ENABLE();
 8000dee:	f043 0308 	orr.w	r3, r3, #8
 8000df2:	61a3      	str	r3, [r4, #24]
 8000df4:	69a3      	ldr	r3, [r4, #24]
    HAL_GPIO_Init(GPIOB, &GPIO_InitStruct);
 8000df6:	a902      	add	r1, sp, #8
    __HAL_RCC_GPIOB_CLK_ENABLE();
 8000df8:	f003 0308 	and.w	r3, r3, #8
 8000dfc:	9300      	str	r3, [sp, #0]
 8000dfe:	9b00      	ldr	r3, [sp, #0]
    GPIO_InitStruct.Mode = GPIO_MODE_AF_OD;
 8000e00:	2312      	movs	r3, #18
 8000e02:	e9cd 2302 	strd	r2, r3, [sp, #8]
    GPIO_InitStruct.Speed = GPIO_SPEED_FREQ_HIGH;
 8000e06:	2303      	movs	r3, #3
 8000e08:	9305      	str	r3, [sp, #20]
    HAL_GPIO_Init(GPIOB, &GPIO_InitStruct);
 8000e0a:	f000 f925 	bl	8001058 <HAL_GPIO_Init>

    __HAL_AFIO_REMAP_I2C1_ENABLE();
 8000e0e:	4a0c      	ldr	r2, [pc, #48]	@ (8000e40 <HAL_I2C_MspInit+0x74>)
 8000e10:	6853      	ldr	r3, [r2, #4]
 8000e12:	f043 63e0 	orr.w	r3, r3, #117440512	@ 0x7000000
 8000e16:	f043 0302 	orr.w	r3, r3, #2
 8000e1a:	6053      	str	r3, [r2, #4]

    /* Peripheral clock enable */
    __HAL_RCC_I2C1_CLK_ENABLE();
 8000e1c:	69e3      	ldr	r3, [r4, #28]
 8000e1e:	f443 1300 	orr.w	r3, r3, #2097152	@ 0x200000
 8000e22:	61e3      	str	r3, [r4, #28]
 8000e24:	69e3      	ldr	r3, [r4, #28]
 8000e26:	f403 1300 	and.w	r3, r3, #2097152	@ 0x200000
 8000e2a:	9301      	str	r3, [sp, #4]
 8000e2c:	9b01      	ldr	r3, [sp, #4]
  /* USER CODE BEGIN I2C1_MspInit 1 */

  /* USER CODE END I2C1_MspInit 1 */
  }

}
 8000e2e:	b006      	add	sp, #24
 8000e30:	bd10      	pop	{r4, pc}
 8000e32:	bf00      	nop
 8000e34:	40005400 	.word	0x40005400
 8000e38:	40021000 	.word	0x40021000
 8000e3c:	40010c00 	.word	0x40010c00
 8000e40:	40010000 	.word	0x40010000

08000e44 <NMI_Handler>:
{
  /* USER CODE BEGIN NonMaskableInt_IRQn 0 */

  /* USER CODE END NonMaskableInt_IRQn 0 */
  /* USER CODE BEGIN NonMaskableInt_IRQn 1 */
   while (1)
 8000e44:	e7fe      	b.n	8000e44 <NMI_Handler>

08000e46 <HardFault_Handler>:
void HardFault_Handler(void)
{
  /* USER CODE BEGIN HardFault_IRQn 0 */

  /* USER CODE END HardFault_IRQn 0 */
  while (1)
 8000e46:	e7fe      	b.n	8000e46 <HardFault_Handler>

08000e48 <MemManage_Handler>:
void MemManage_Handler(void)
{
  /* USER CODE BEGIN MemoryManagement_IRQn 0 */

  /* USER CODE END MemoryManagement_IRQn 0 */
  while (1)
 8000e48:	e7fe      	b.n	8000e48 <MemManage_Handler>

08000e4a <BusFault_Handler>:
void BusFault_Handler(void)
{
  /* USER CODE BEGIN BusFault_IRQn 0 */

  /* USER CODE END BusFault_IRQn 0 */
  while (1)
 8000e4a:	e7fe      	b.n	8000e4a <BusFault_Handler>

08000e4c <UsageFault_Handler>:
void UsageFault_Handler(void)
{
  /* USER CODE BEGIN UsageFault_IRQn 0 */

  /* USER CODE END UsageFault_IRQn 0 */
  while (1)
 8000e4c:	e7fe      	b.n	8000e4c <UsageFault_Handler>

08000e4e <DebugMon_Handler>:

  /* USER CODE END DebugMonitor_IRQn 0 */
  /* USER CODE BEGIN DebugMonitor_IRQn 1 */

  /* USER CODE END DebugMonitor_IRQn 1 */
}
 8000e4e:	4770      	bx	lr

08000e50 <SysTick_Handler>:

/**
  * @brief This function handles System tick timer.
  */
void SysTick_Handler(void)
{
 8000e50:	b508      	push	{r3, lr}
  /* USER CODE BEGIN SysTick_IRQn 0 */

  /* USER CODE END SysTick_IRQn 0 */
  HAL_IncTick();
 8000e52:	f000 f887 	bl	8000f64 <HAL_IncTick>
#if (INCLUDE_xTaskGetSchedulerState == 1 )
  if (xTaskGetSchedulerState() != taskSCHEDULER_NOT_STARTED)
 8000e56:	f001 ffd5 	bl	8002e04 <xTaskGetSchedulerState>
 8000e5a:	2801      	cmp	r0, #1
 8000e5c:	d003      	beq.n	8000e66 <SysTick_Handler+0x16>
  }
#endif /* INCLUDE_xTaskGetSchedulerState */
  /* USER CODE BEGIN SysTick_IRQn 1 */

  /* USER CODE END SysTick_IRQn 1 */
}
 8000e5e:	e8bd 4008 	ldmia.w	sp!, {r3, lr}
  xPortSysTickHandler();
 8000e62:	f002 bb27 	b.w	80034b4 <xPortSysTickHandler>
}
 8000e66:	bd08      	pop	{r3, pc}

08000e68 <_sbrk>:
  const uint32_t stack_limit = (uint32_t)&_estack - (uint32_t)&_Min_Stack_Size;
  const uint8_t *max_heap = (uint8_t *)stack_limit;
  uint8_t *prev_heap_end;

  /* Initialize heap end at first call */
  if (NULL == __sbrk_heap_end)
 8000e68:	4a0b      	ldr	r2, [pc, #44]	@ (8000e98 <_sbrk+0x30>)
{
 8000e6a:	4603      	mov	r3, r0
  if (NULL == __sbrk_heap_end)
 8000e6c:	6811      	ldr	r1, [r2, #0]
{
 8000e6e:	b510      	push	{r4, lr}
  if (NULL == __sbrk_heap_end)
 8000e70:	b909      	cbnz	r1, 8000e76 <_sbrk+0xe>
  {
    __sbrk_heap_end = &_end;
 8000e72:	490a      	ldr	r1, [pc, #40]	@ (8000e9c <_sbrk+0x34>)
 8000e74:	6011      	str	r1, [r2, #0]
  }

  /* Protect heap from growing into the reserved MSP stack */
  if (__sbrk_heap_end + incr > max_heap)
 8000e76:	6810      	ldr	r0, [r2, #0]
 8000e78:	4909      	ldr	r1, [pc, #36]	@ (8000ea0 <_sbrk+0x38>)
 8000e7a:	4c0a      	ldr	r4, [pc, #40]	@ (8000ea4 <_sbrk+0x3c>)
 8000e7c:	4403      	add	r3, r0
 8000e7e:	1b09      	subs	r1, r1, r4
 8000e80:	428b      	cmp	r3, r1
 8000e82:	d906      	bls.n	8000e92 <_sbrk+0x2a>
  {
    errno = ENOMEM;
 8000e84:	f002 fcdc 	bl	8003840 <__errno>
 8000e88:	230c      	movs	r3, #12
 8000e8a:	6003      	str	r3, [r0, #0]
    return (void *)-1;
 8000e8c:	f04f 30ff 	mov.w	r0, #4294967295

  prev_heap_end = __sbrk_heap_end;
  __sbrk_heap_end += incr;

  return (void *)prev_heap_end;
}
 8000e90:	bd10      	pop	{r4, pc}
  __sbrk_heap_end += incr;
 8000e92:	6013      	str	r3, [r2, #0]
  return (void *)prev_heap_end;
 8000e94:	e7fc      	b.n	8000e90 <_sbrk+0x28>
 8000e96:	bf00      	nop
 8000e98:	20000b9c 	.word	0x20000b9c
 8000e9c:	20001b70 	.word	0x20001b70
 8000ea0:	20002800 	.word	0x20002800
 8000ea4:	00000400 	.word	0x00000400

08000ea8 <SystemInit>:

  /* Configure the Vector Table location -------------------------------------*/
#if defined(USER_VECT_TAB_ADDRESS)
  SCB->VTOR = VECT_TAB_BASE_ADDRESS | VECT_TAB_OFFSET; /* Vector Table Relocation in Internal SRAM. */
#endif /* USER_VECT_TAB_ADDRESS */
}
 8000ea8:	4770      	bx	lr
	...

08000eac <Reset_Handler>:
  .weak Reset_Handler
  .type Reset_Handler, %function
Reset_Handler:

/* Call the clock system initialization function.*/
    bl  SystemInit
 8000eac:	f7ff fffc 	bl	8000ea8 <SystemInit>

/* Copy the data segment initializers from flash to SRAM */
  ldr r0, =_sdata
 8000eb0:	480b      	ldr	r0, [pc, #44]	@ (8000ee0 <LoopFillZerobss+0xe>)
  ldr r1, =_edata
 8000eb2:	490c      	ldr	r1, [pc, #48]	@ (8000ee4 <LoopFillZerobss+0x12>)
  ldr r2, =_sidata
 8000eb4:	4a0c      	ldr	r2, [pc, #48]	@ (8000ee8 <LoopFillZerobss+0x16>)
  movs r3, #0
 8000eb6:	2300      	movs	r3, #0
  b LoopCopyDataInit
 8000eb8:	e002      	b.n	8000ec0 <LoopCopyDataInit>

08000eba <CopyDataInit>:

CopyDataInit:
  ldr r4, [r2, r3]
 8000eba:	58d4      	ldr	r4, [r2, r3]
  str r4, [r0, r3]
 8000ebc:	50c4      	str	r4, [r0, r3]
  adds r3, r3, #4
 8000ebe:	3304      	adds	r3, #4

08000ec0 <LoopCopyDataInit>:

LoopCopyDataInit:
  adds r4, r0, r3
 8000ec0:	18c4      	adds	r4, r0, r3
  cmp r4, r1
 8000ec2:	428c      	cmp	r4, r1
  bcc CopyDataInit
 8000ec4:	d3f9      	bcc.n	8000eba <CopyDataInit>
  
/* Zero fill the bss segment. */
  ldr r2, =_sbss
 8000ec6:	4a09      	ldr	r2, [pc, #36]	@ (8000eec <LoopFillZerobss+0x1a>)
  ldr r4, =_ebss
 8000ec8:	4c09      	ldr	r4, [pc, #36]	@ (8000ef0 <LoopFillZerobss+0x1e>)
  movs r3, #0
 8000eca:	2300      	movs	r3, #0
  b LoopFillZerobss
 8000ecc:	e001      	b.n	8000ed2 <LoopFillZerobss>

08000ece <FillZerobss>:

FillZerobss:
  str  r3, [r2]
 8000ece:	6013      	str	r3, [r2, #0]
  adds r2, r2, #4
 8000ed0:	3204      	adds	r2, #4

08000ed2 <LoopFillZerobss>:

LoopFillZerobss:
  cmp r2, r4
 8000ed2:	42a2      	cmp	r2, r4
  bcc FillZerobss
 8000ed4:	d3fb      	bcc.n	8000ece <FillZerobss>

/* Call static constructors */
    bl __libc_init_array
 8000ed6:	f002 fcb9 	bl	800384c <__libc_init_array>
/* Call the application's entry point.*/
  bl main
 8000eda:	f7ff fc79 	bl	80007d0 <main>
  bx lr
 8000ede:	4770      	bx	lr
  ldr r0, =_sdata
 8000ee0:	20000000 	.word	0x20000000
  ldr r1, =_edata
 8000ee4:	20000068 	.word	0x20000068
  ldr r2, =_sidata
 8000ee8:	08005aa8 	.word	0x08005aa8
  ldr r2, =_sbss
 8000eec:	20000068 	.word	0x20000068
  ldr r4, =_ebss
 8000ef0:	20001b70 	.word	0x20001b70

08000ef4 <ADC1_2_IRQHandler>:
 * @retval : None
*/
    .section .text.Default_Handler,"ax",%progbits
Default_Handler:
Infinite_Loop:
  b Infinite_Loop
 8000ef4:	e7fe      	b.n	8000ef4 <ADC1_2_IRQHandler>
	...

08000ef8 <HAL_InitTick>:
  *       implementation  in user file.
  * @param TickPriority Tick interrupt priority.
  * @retval HAL status
  */
__weak HAL_StatusTypeDef HAL_InitTick(uint32_t TickPriority)
{
 8000ef8:	b538      	push	{r3, r4, r5, lr}
  /* Configure the SysTick to have interrupt in 1ms time basis*/
  if (HAL_SYSTICK_Config(SystemCoreClock / (1000U / uwTickFreq)) > 0U)
 8000efa:	4b0e      	ldr	r3, [pc, #56]	@ (8000f34 <HAL_InitTick+0x3c>)
{
 8000efc:	4605      	mov	r5, r0
  if (HAL_SYSTICK_Config(SystemCoreClock / (1000U / uwTickFreq)) > 0U)
 8000efe:	781a      	ldrb	r2, [r3, #0]
 8000f00:	f44f 737a 	mov.w	r3, #1000	@ 0x3e8
 8000f04:	fbb3 f3f2 	udiv	r3, r3, r2
 8000f08:	4a0b      	ldr	r2, [pc, #44]	@ (8000f38 <HAL_InitTick+0x40>)
 8000f0a:	6810      	ldr	r0, [r2, #0]
 8000f0c:	fbb0 f0f3 	udiv	r0, r0, r3
 8000f10:	f000 f88e 	bl	8001030 <HAL_SYSTICK_Config>
 8000f14:	4604      	mov	r4, r0
 8000f16:	b958      	cbnz	r0, 8000f30 <HAL_InitTick+0x38>
  {
    return HAL_ERROR;
  }

  /* Configure the SysTick IRQ priority */
  if (TickPriority < (1UL << __NVIC_PRIO_BITS))
 8000f18:	2d0f      	cmp	r5, #15
 8000f1a:	d809      	bhi.n	8000f30 <HAL_InitTick+0x38>
  {
    HAL_NVIC_SetPriority(SysTick_IRQn, TickPriority, 0U);
 8000f1c:	4602      	mov	r2, r0
 8000f1e:	4629      	mov	r1, r5
 8000f20:	f04f 30ff 	mov.w	r0, #4294967295
 8000f24:	f000 f854 	bl	8000fd0 <HAL_NVIC_SetPriority>
    uwTickPrio = TickPriority;
 8000f28:	4620      	mov	r0, r4
 8000f2a:	4b04      	ldr	r3, [pc, #16]	@ (8000f3c <HAL_InitTick+0x44>)
 8000f2c:	601d      	str	r5, [r3, #0]
    return HAL_ERROR;
  }

  /* Return function status */
  return HAL_OK;
}
 8000f2e:	bd38      	pop	{r3, r4, r5, pc}
    return HAL_ERROR;
 8000f30:	2001      	movs	r0, #1
 8000f32:	e7fc      	b.n	8000f2e <HAL_InitTick+0x36>
 8000f34:	2000000c 	.word	0x2000000c
 8000f38:	20000008 	.word	0x20000008
 8000f3c:	20000010 	.word	0x20000010

08000f40 <HAL_Init>:
  __HAL_FLASH_PREFETCH_BUFFER_ENABLE();
 8000f40:	4a07      	ldr	r2, [pc, #28]	@ (8000f60 <HAL_Init+0x20>)
{
 8000f42:	b508      	push	{r3, lr}
  __HAL_FLASH_PREFETCH_BUFFER_ENABLE();
 8000f44:	6813      	ldr	r3, [r2, #0]
  HAL_NVIC_SetPriorityGrouping(NVIC_PRIORITYGROUP_4);
 8000f46:	2003      	movs	r0, #3
  __HAL_FLASH_PREFETCH_BUFFER_ENABLE();
 8000f48:	f043 0310 	orr.w	r3, r3, #16
 8000f4c:	6013      	str	r3, [r2, #0]
  HAL_NVIC_SetPriorityGrouping(NVIC_PRIORITYGROUP_4);
 8000f4e:	f000 f82d 	bl	8000fac <HAL_NVIC_SetPriorityGrouping>
  HAL_InitTick(TICK_INT_PRIORITY);
 8000f52:	200f      	movs	r0, #15
 8000f54:	f7ff ffd0 	bl	8000ef8 <HAL_InitTick>
  HAL_MspInit();
 8000f58:	f7ff ff10 	bl	8000d7c <HAL_MspInit>
}
 8000f5c:	2000      	movs	r0, #0
 8000f5e:	bd08      	pop	{r3, pc}
 8000f60:	40022000 	.word	0x40022000

08000f64 <HAL_IncTick>:
  *      implementations in user file.
  * @retval None
  */
__weak void HAL_IncTick(void)
{
  uwTick += uwTickFreq;
 8000f64:	4a03      	ldr	r2, [pc, #12]	@ (8000f74 <HAL_IncTick+0x10>)
 8000f66:	4b04      	ldr	r3, [pc, #16]	@ (8000f78 <HAL_IncTick+0x14>)
 8000f68:	6811      	ldr	r1, [r2, #0]
 8000f6a:	781b      	ldrb	r3, [r3, #0]
 8000f6c:	440b      	add	r3, r1
 8000f6e:	6013      	str	r3, [r2, #0]
}
 8000f70:	4770      	bx	lr
 8000f72:	bf00      	nop
 8000f74:	20000ba0 	.word	0x20000ba0
 8000f78:	2000000c 	.word	0x2000000c

08000f7c <HAL_GetTick>:
  *       implementations in user file.
  * @retval tick value
  */
__weak uint32_t HAL_GetTick(void)
{
  return uwTick;
 8000f7c:	4b01      	ldr	r3, [pc, #4]	@ (8000f84 <HAL_GetTick+0x8>)
 8000f7e:	6818      	ldr	r0, [r3, #0]
}
 8000f80:	4770      	bx	lr
 8000f82:	bf00      	nop
 8000f84:	20000ba0 	.word	0x20000ba0

08000f88 <HAL_Delay>:
  *       implementations in user file.
  * @param Delay specifies the delay time length, in milliseconds.
  * @retval None
  */
__weak void HAL_Delay(uint32_t Delay)
{
 8000f88:	b538      	push	{r3, r4, r5, lr}
 8000f8a:	4604      	mov	r4, r0
  uint32_t tickstart = HAL_GetTick();
 8000f8c:	f7ff fff6 	bl	8000f7c <HAL_GetTick>
 8000f90:	4605      	mov	r5, r0
  uint32_t wait = Delay;

  /* Add a freq to guarantee minimum wait */
  if (wait < HAL_MAX_DELAY)
 8000f92:	1c63      	adds	r3, r4, #1
  {
    wait += (uint32_t)(uwTickFreq);
 8000f94:	bf1e      	ittt	ne
 8000f96:	4b04      	ldrne	r3, [pc, #16]	@ (8000fa8 <HAL_Delay+0x20>)
 8000f98:	781b      	ldrbne	r3, [r3, #0]
 8000f9a:	18e4      	addne	r4, r4, r3
  }

  while ((HAL_GetTick() - tickstart) < wait)
 8000f9c:	f7ff ffee 	bl	8000f7c <HAL_GetTick>
 8000fa0:	1b43      	subs	r3, r0, r5
 8000fa2:	42a3      	cmp	r3, r4
 8000fa4:	d3fa      	bcc.n	8000f9c <HAL_Delay+0x14>
  {
  }
}
 8000fa6:	bd38      	pop	{r3, r4, r5, pc}
 8000fa8:	2000000c 	.word	0x2000000c

08000fac <HAL_NVIC_SetPriorityGrouping>:
__STATIC_INLINE void __NVIC_SetPriorityGrouping(uint32_t PriorityGroup)
{
  uint32_t reg_value;
  uint32_t PriorityGroupTmp = (PriorityGroup & (uint32_t)0x07UL);             /* only values 0..7 are used          */

  reg_value  =  SCB->AIRCR;                                                   /* read old register configuration    */
 8000fac:	4907      	ldr	r1, [pc, #28]	@ (8000fcc <HAL_NVIC_SetPriorityGrouping+0x20>)
  reg_value &= ~((uint32_t)(SCB_AIRCR_VECTKEY_Msk | SCB_AIRCR_PRIGROUP_Msk)); /* clear bits to change               */
  reg_value  =  (reg_value                                   |
                ((uint32_t)0x5FAUL << SCB_AIRCR_VECTKEY_Pos) |
                (PriorityGroupTmp << SCB_AIRCR_PRIGROUP_Pos) );               /* Insert write key and priority group */
 8000fae:	0203      	lsls	r3, r0, #8
  reg_value  =  SCB->AIRCR;                                                   /* read old register configuration    */
 8000fb0:	68ca      	ldr	r2, [r1, #12]
                (PriorityGroupTmp << SCB_AIRCR_PRIGROUP_Pos) );               /* Insert write key and priority group */
 8000fb2:	f403 63e0 	and.w	r3, r3, #1792	@ 0x700
  reg_value &= ~((uint32_t)(SCB_AIRCR_VECTKEY_Msk | SCB_AIRCR_PRIGROUP_Msk)); /* clear bits to change               */
 8000fb6:	f422 62e0 	bic.w	r2, r2, #1792	@ 0x700
 8000fba:	0412      	lsls	r2, r2, #16
 8000fbc:	0c12      	lsrs	r2, r2, #16
                ((uint32_t)0x5FAUL << SCB_AIRCR_VECTKEY_Pos) |
 8000fbe:	4313      	orrs	r3, r2
  reg_value  =  (reg_value                                   |
 8000fc0:	f043 63bf 	orr.w	r3, r3, #100139008	@ 0x5f80000
 8000fc4:	f443 3300 	orr.w	r3, r3, #131072	@ 0x20000
  SCB->AIRCR =  reg_value;
 8000fc8:	60cb      	str	r3, [r1, #12]
  /* Check the parameters */
  assert_param(IS_NVIC_PRIORITY_GROUP(PriorityGroup));
  
  /* Set the PRIGROUP[10:8] bits according to the PriorityGroup parameter value */
  NVIC_SetPriorityGrouping(PriorityGroup);
}
 8000fca:	4770      	bx	lr
 8000fcc:	e000ed00 	.word	0xe000ed00

08000fd0 <HAL_NVIC_SetPriority>:
  \details Reads the priority grouping field from the NVIC Interrupt Controller.
  \return                Priority grouping field (SCB->AIRCR [10:8] PRIGROUP field).
 */
__STATIC_INLINE uint32_t __NVIC_GetPriorityGrouping(void)
{
  return ((uint32_t)((SCB->AIRCR & SCB_AIRCR_PRIGROUP_Msk) >> SCB_AIRCR_PRIGROUP_Pos));
 8000fd0:	4b15      	ldr	r3, [pc, #84]	@ (8001028 <HAL_NVIC_SetPriority+0x58>)
  *         This parameter can be a value between 0 and 15
  *         A lower priority value indicates a higher priority.          
  * @retval None
  */
void HAL_NVIC_SetPriority(IRQn_Type IRQn, uint32_t PreemptPriority, uint32_t SubPriority)
{ 
 8000fd2:	b530      	push	{r4, r5, lr}
 8000fd4:	68dc      	ldr	r4, [r3, #12]
 8000fd6:	f3c4 2402 	ubfx	r4, r4, #8, #3
{
  uint32_t PriorityGroupTmp = (PriorityGroup & (uint32_t)0x07UL);   /* only values 0..7 are used          */
  uint32_t PreemptPriorityBits;
  uint32_t SubPriorityBits;

  PreemptPriorityBits = ((7UL - PriorityGroupTmp) > (uint32_t)(__NVIC_PRIO_BITS)) ? (uint32_t)(__NVIC_PRIO_BITS) : (uint32_t)(7UL - PriorityGroupTmp);
 8000fda:	f1c4 0307 	rsb	r3, r4, #7
  SubPriorityBits     = ((PriorityGroupTmp + (uint32_t)(__NVIC_PRIO_BITS)) < (uint32_t)7UL) ? (uint32_t)0UL : (uint32_t)((PriorityGroupTmp - 7UL) + (uint32_t)(__NVIC_PRIO_BITS));
 8000fde:	1d25      	adds	r5, r4, #4
  PreemptPriorityBits = ((7UL - PriorityGroupTmp) > (uint32_t)(__NVIC_PRIO_BITS)) ? (uint32_t)(__NVIC_PRIO_BITS) : (uint32_t)(7UL - PriorityGroupTmp);
 8000fe0:	2b04      	cmp	r3, #4
 8000fe2:	bf28      	it	cs
 8000fe4:	2304      	movcs	r3, #4
  SubPriorityBits     = ((PriorityGroupTmp + (uint32_t)(__NVIC_PRIO_BITS)) < (uint32_t)7UL) ? (uint32_t)0UL : (uint32_t)((PriorityGroupTmp - 7UL) + (uint32_t)(__NVIC_PRIO_BITS));
 8000fe6:	2d06      	cmp	r5, #6

  return (
           ((PreemptPriority & (uint32_t)((1UL << (PreemptPriorityBits)) - 1UL)) << SubPriorityBits) |
 8000fe8:	f04f 35ff 	mov.w	r5, #4294967295
  SubPriorityBits     = ((PriorityGroupTmp + (uint32_t)(__NVIC_PRIO_BITS)) < (uint32_t)7UL) ? (uint32_t)0UL : (uint32_t)((PriorityGroupTmp - 7UL) + (uint32_t)(__NVIC_PRIO_BITS));
 8000fec:	bf94      	ite	ls
 8000fee:	2400      	movls	r4, #0
 8000ff0:	3c03      	subhi	r4, #3
           ((PreemptPriority & (uint32_t)((1UL << (PreemptPriorityBits)) - 1UL)) << SubPriorityBits) |
 8000ff2:	fa05 f303 	lsl.w	r3, r5, r3
 8000ff6:	ea21 0303 	bic.w	r3, r1, r3
           ((SubPriority     & (uint32_t)((1UL << (SubPriorityBits    )) - 1UL)))
 8000ffa:	40a5      	lsls	r5, r4
 8000ffc:	ea22 0205 	bic.w	r2, r2, r5
           ((PreemptPriority & (uint32_t)((1UL << (PreemptPriorityBits)) - 1UL)) << SubPriorityBits) |
 8001000:	40a3      	lsls	r3, r4
  if ((int32_t)(IRQn) >= 0)
 8001002:	2800      	cmp	r0, #0
           ((PreemptPriority & (uint32_t)((1UL << (PreemptPriorityBits)) - 1UL)) << SubPriorityBits) |
 8001004:	ea43 0302 	orr.w	r3, r3, r2
    NVIC->IP[((uint32_t)IRQn)]               = (uint8_t)((priority << (8U - __NVIC_PRIO_BITS)) & (uint32_t)0xFFUL);
 8001008:	bfac      	ite	ge
 800100a:	f100 4060 	addge.w	r0, r0, #3758096384	@ 0xe0000000
    SCB->SHP[(((uint32_t)IRQn) & 0xFUL)-4UL] = (uint8_t)((priority << (8U - __NVIC_PRIO_BITS)) & (uint32_t)0xFFUL);
 800100e:	4a07      	ldrlt	r2, [pc, #28]	@ (800102c <HAL_NVIC_SetPriority+0x5c>)
    NVIC->IP[((uint32_t)IRQn)]               = (uint8_t)((priority << (8U - __NVIC_PRIO_BITS)) & (uint32_t)0xFFUL);
 8001010:	ea4f 1303 	mov.w	r3, r3, lsl #4
 8001014:	b2db      	uxtb	r3, r3
 8001016:	bfab      	itete	ge
 8001018:	f500 4061 	addge.w	r0, r0, #57600	@ 0xe100
    SCB->SHP[(((uint32_t)IRQn) & 0xFUL)-4UL] = (uint8_t)((priority << (8U - __NVIC_PRIO_BITS)) & (uint32_t)0xFFUL);
 800101c:	f000 000f 	andlt.w	r0, r0, #15
    NVIC->IP[((uint32_t)IRQn)]               = (uint8_t)((priority << (8U - __NVIC_PRIO_BITS)) & (uint32_t)0xFFUL);
 8001020:	f880 3300 	strbge.w	r3, [r0, #768]	@ 0x300
    SCB->SHP[(((uint32_t)IRQn) & 0xFUL)-4UL] = (uint8_t)((priority << (8U - __NVIC_PRIO_BITS)) & (uint32_t)0xFFUL);
 8001024:	5413      	strblt	r3, [r2, r0]
  assert_param(IS_NVIC_PREEMPTION_PRIORITY(PreemptPriority));
  
  prioritygroup = NVIC_GetPriorityGrouping();
  
  NVIC_SetPriority(IRQn, NVIC_EncodePriority(prioritygroup, PreemptPriority, SubPriority));
}
 8001026:	bd30      	pop	{r4, r5, pc}
 8001028:	e000ed00 	.word	0xe000ed00
 800102c:	e000ed14 	.word	0xe000ed14

08001030 <HAL_SYSTICK_Config>:
           function <b>SysTick_Config</b> is not included. In this case, the file <b><i>device</i>.h</b>
           must contain a vendor-specific implementation of this function.
 */
__STATIC_INLINE uint32_t SysTick_Config(uint32_t ticks)
{
  if ((ticks - 1UL) > SysTick_LOAD_RELOAD_Msk)
 8001030:	3801      	subs	r0, #1
 8001032:	f1b0 7f80 	cmp.w	r0, #16777216	@ 0x1000000
 8001036:	d20b      	bcs.n	8001050 <HAL_SYSTICK_Config+0x20>
  {
    return (1UL);                                                   /* Reload value impossible */
  }

  SysTick->LOAD  = (uint32_t)(ticks - 1UL);                         /* set reload register */
 8001038:	f04f 23e0 	mov.w	r3, #3758153728	@ 0xe000e000
    SCB->SHP[(((uint32_t)IRQn) & 0xFUL)-4UL] = (uint8_t)((priority << (8U - __NVIC_PRIO_BITS)) & (uint32_t)0xFFUL);
 800103c:	21f0      	movs	r1, #240	@ 0xf0
 800103e:	4a05      	ldr	r2, [pc, #20]	@ (8001054 <HAL_SYSTICK_Config+0x24>)
  SysTick->LOAD  = (uint32_t)(ticks - 1UL);                         /* set reload register */
 8001040:	6158      	str	r0, [r3, #20]
    SCB->SHP[(((uint32_t)IRQn) & 0xFUL)-4UL] = (uint8_t)((priority << (8U - __NVIC_PRIO_BITS)) & (uint32_t)0xFFUL);
 8001042:	f882 1023 	strb.w	r1, [r2, #35]	@ 0x23
  NVIC_SetPriority (SysTick_IRQn, (1UL << __NVIC_PRIO_BITS) - 1UL); /* set Priority for Systick Interrupt */
  SysTick->VAL   = 0UL;                                             /* Load the SysTick Counter Value */
 8001046:	2000      	movs	r0, #0
  SysTick->CTRL  = SysTick_CTRL_CLKSOURCE_Msk |
 8001048:	2207      	movs	r2, #7
  SysTick->VAL   = 0UL;                                             /* Load the SysTick Counter Value */
 800104a:	6198      	str	r0, [r3, #24]
  SysTick->CTRL  = SysTick_CTRL_CLKSOURCE_Msk |
 800104c:	611a      	str	r2, [r3, #16]
                   SysTick_CTRL_TICKINT_Msk   |
                   SysTick_CTRL_ENABLE_Msk;                         /* Enable SysTick IRQ and SysTick Timer */
  return (0UL);                                                     /* Function successful */
 800104e:	4770      	bx	lr
    return (1UL);                                                   /* Reload value impossible */
 8001050:	2001      	movs	r0, #1
  *                  - 1  Function failed.
  */
uint32_t HAL_SYSTICK_Config(uint32_t TicksNumb)
{
   return SysTick_Config(TicksNumb);
}
 8001052:	4770      	bx	lr
 8001054:	e000ed00 	.word	0xe000ed00

08001058 <HAL_GPIO_Init>:
  * @param  GPIO_Init: pointer to a GPIO_InitTypeDef structure that contains
  *         the configuration information for the specified GPIO peripheral.
  * @retval None
  */
void HAL_GPIO_Init(GPIO_TypeDef  *GPIOx, GPIO_InitTypeDef *GPIO_Init)
{
 8001058:	e92d 4ff7 	stmdb	sp!, {r0, r1, r2, r4, r5, r6, r7, r8, r9, sl, fp, lr}
  uint32_t position = 0x00u;
  uint32_t ioposition;
  uint32_t iocurrent;
  uint32_t temp;
  uint32_t config = 0x00u;
 800105c:	2200      	movs	r2, #0
  uint32_t position = 0x00u;
 800105e:	4616      	mov	r6, r2
      /*--------------------- EXTI Mode Configuration ------------------------*/
      /* Configure the External Interrupt or event for the current IO */
      if ((GPIO_Init->Mode & EXTI_MODE) == EXTI_MODE)
      {
        /* Enable AFIO Clock */
        __HAL_RCC_AFIO_CLK_ENABLE();
 8001060:	f8df c17c 	ldr.w	ip, [pc, #380]	@ 80011e0 <HAL_GPIO_Init+0x188>
 8001064:	4b5f      	ldr	r3, [pc, #380]	@ (80011e4 <HAL_GPIO_Init+0x18c>)
      switch (GPIO_Init->Mode)
 8001066:	f8df e180 	ldr.w	lr, [pc, #384]	@ 80011e8 <HAL_GPIO_Init+0x190>
 800106a:	f8df 8180 	ldr.w	r8, [pc, #384]	@ 80011ec <HAL_GPIO_Init+0x194>
  while (((GPIO_Init->Pin) >> position) != 0x00u)
 800106e:	680d      	ldr	r5, [r1, #0]
 8001070:	fa35 f406 	lsrs.w	r4, r5, r6
 8001074:	d102      	bne.n	800107c <HAL_GPIO_Init+0x24>
      }
    }

	position++;
  }
}
 8001076:	b003      	add	sp, #12
 8001078:	e8bd 8ff0 	ldmia.w	sp!, {r4, r5, r6, r7, r8, r9, sl, fp, pc}
    ioposition = (0x01uL << position);
 800107c:	2701      	movs	r7, #1
 800107e:	40b7      	lsls	r7, r6
    iocurrent = (uint32_t)(GPIO_Init->Pin) & ioposition;
 8001080:	ea05 0407 	and.w	r4, r5, r7
    if (iocurrent == ioposition)
 8001084:	ea37 0505 	bics.w	r5, r7, r5
 8001088:	d175      	bne.n	8001176 <HAL_GPIO_Init+0x11e>
      switch (GPIO_Init->Mode)
 800108a:	684d      	ldr	r5, [r1, #4]
 800108c:	2d03      	cmp	r5, #3
 800108e:	d806      	bhi.n	800109e <HAL_GPIO_Init+0x46>
 8001090:	3d01      	subs	r5, #1
 8001092:	2d02      	cmp	r5, #2
 8001094:	d87e      	bhi.n	8001194 <HAL_GPIO_Init+0x13c>
 8001096:	e8df f005 	tbb	[pc, r5]
 800109a:	948f      	.short	0x948f
 800109c:	9a          	.byte	0x9a
 800109d:	00          	.byte	0x00
 800109e:	2d12      	cmp	r5, #18
 80010a0:	f000 8092 	beq.w	80011c8 <HAL_GPIO_Init+0x170>
 80010a4:	d869      	bhi.n	800117a <HAL_GPIO_Init+0x122>
 80010a6:	2d11      	cmp	r5, #17
 80010a8:	f000 8088 	beq.w	80011bc <HAL_GPIO_Init+0x164>
      configregister = (iocurrent < GPIO_PIN_8) ? &GPIOx->CRL     : &GPIOx->CRH;
 80010ac:	2cff      	cmp	r4, #255	@ 0xff
 80010ae:	bf98      	it	ls
 80010b0:	4681      	movls	r9, r0
      MODIFY_REG((*configregister), ((GPIO_CRL_MODE0 | GPIO_CRL_CNF0) << registeroffset), (config << registeroffset));
 80010b2:	f04f 0b0f 	mov.w	fp, #15
      configregister = (iocurrent < GPIO_PIN_8) ? &GPIOx->CRL     : &GPIOx->CRH;
 80010b6:	bf88      	it	hi
 80010b8:	f100 0904 	addhi.w	r9, r0, #4
 80010bc:	ea4f 0586 	mov.w	r5, r6, lsl #2
      MODIFY_REG((*configregister), ((GPIO_CRL_MODE0 | GPIO_CRL_CNF0) << registeroffset), (config << registeroffset));
 80010c0:	f8d9 7000 	ldr.w	r7, [r9]
      registeroffset = (iocurrent < GPIO_PIN_8) ? (position << 2u) : ((position - 8u) << 2u);
 80010c4:	bf88      	it	hi
 80010c6:	3d20      	subhi	r5, #32
      MODIFY_REG((*configregister), ((GPIO_CRL_MODE0 | GPIO_CRL_CNF0) << registeroffset), (config << registeroffset));
 80010c8:	fa0b fa05 	lsl.w	sl, fp, r5
 80010cc:	ea27 070a 	bic.w	r7, r7, sl
 80010d0:	fa02 f505 	lsl.w	r5, r2, r5
 80010d4:	432f      	orrs	r7, r5
 80010d6:	f8c9 7000 	str.w	r7, [r9]
      if ((GPIO_Init->Mode & EXTI_MODE) == EXTI_MODE)
 80010da:	f8d1 9004 	ldr.w	r9, [r1, #4]
 80010de:	f019 5f80 	tst.w	r9, #268435456	@ 0x10000000
 80010e2:	d048      	beq.n	8001176 <HAL_GPIO_Init+0x11e>
        __HAL_RCC_AFIO_CLK_ENABLE();
 80010e4:	f8dc 5018 	ldr.w	r5, [ip, #24]
 80010e8:	f026 0703 	bic.w	r7, r6, #3
 80010ec:	f045 0501 	orr.w	r5, r5, #1
 80010f0:	f8cc 5018 	str.w	r5, [ip, #24]
 80010f4:	f8dc 5018 	ldr.w	r5, [ip, #24]
 80010f8:	f107 4780 	add.w	r7, r7, #1073741824	@ 0x40000000
 80010fc:	f005 0501 	and.w	r5, r5, #1
 8001100:	9501      	str	r5, [sp, #4]
 8001102:	f507 3780 	add.w	r7, r7, #65536	@ 0x10000
        CLEAR_BIT(temp, (0x0Fu) << (4u * (position & 0x03u)));
 8001106:	f006 0a03 	and.w	sl, r6, #3
        __HAL_RCC_AFIO_CLK_ENABLE();
 800110a:	9d01      	ldr	r5, [sp, #4]
        CLEAR_BIT(temp, (0x0Fu) << (4u * (position & 0x03u)));
 800110c:	ea4f 0a8a 	mov.w	sl, sl, lsl #2
        temp = AFIO->EXTICR[position >> 2u];
 8001110:	68bd      	ldr	r5, [r7, #8]
        CLEAR_BIT(temp, (0x0Fu) << (4u * (position & 0x03u)));
 8001112:	fa0b fb0a 	lsl.w	fp, fp, sl
 8001116:	ea25 0b0b 	bic.w	fp, r5, fp
        SET_BIT(temp, (GPIO_GET_INDEX(GPIOx)) << (4u * (position & 0x03u)));
 800111a:	4d35      	ldr	r5, [pc, #212]	@ (80011f0 <HAL_GPIO_Init+0x198>)
 800111c:	42a8      	cmp	r0, r5
 800111e:	d05a      	beq.n	80011d6 <HAL_GPIO_Init+0x17e>
 8001120:	f505 6580 	add.w	r5, r5, #1024	@ 0x400
 8001124:	42a8      	cmp	r0, r5
 8001126:	d058      	beq.n	80011da <HAL_GPIO_Init+0x182>
 8001128:	f505 6580 	add.w	r5, r5, #1024	@ 0x400
 800112c:	42a8      	cmp	r0, r5
 800112e:	bf14      	ite	ne
 8001130:	2503      	movne	r5, #3
 8001132:	2502      	moveq	r5, #2
 8001134:	fa05 f50a 	lsl.w	r5, r5, sl
 8001138:	ea45 050b 	orr.w	r5, r5, fp
        AFIO->EXTICR[position >> 2u] = temp;
 800113c:	60bd      	str	r5, [r7, #8]
          SET_BIT(EXTI->RTSR, iocurrent);
 800113e:	689d      	ldr	r5, [r3, #8]
        if ((GPIO_Init->Mode & RISING_EDGE) == RISING_EDGE)
 8001140:	f419 1f80 	tst.w	r9, #1048576	@ 0x100000
          SET_BIT(EXTI->RTSR, iocurrent);
 8001144:	bf14      	ite	ne
 8001146:	4325      	orrne	r5, r4
          CLEAR_BIT(EXTI->RTSR, iocurrent);
 8001148:	43a5      	biceq	r5, r4
 800114a:	609d      	str	r5, [r3, #8]
          SET_BIT(EXTI->FTSR, iocurrent);
 800114c:	68dd      	ldr	r5, [r3, #12]
        if ((GPIO_Init->Mode & FALLING_EDGE) == FALLING_EDGE)
 800114e:	f419 1f00 	tst.w	r9, #2097152	@ 0x200000
          SET_BIT(EXTI->FTSR, iocurrent);
 8001152:	bf14      	ite	ne
 8001154:	4325      	orrne	r5, r4
          CLEAR_BIT(EXTI->FTSR, iocurrent);
 8001156:	43a5      	biceq	r5, r4
 8001158:	60dd      	str	r5, [r3, #12]
          SET_BIT(EXTI->EMR, iocurrent);
 800115a:	685d      	ldr	r5, [r3, #4]
        if ((GPIO_Init->Mode & GPIO_MODE_EVT) == GPIO_MODE_EVT)
 800115c:	f419 3f00 	tst.w	r9, #131072	@ 0x20000
          SET_BIT(EXTI->EMR, iocurrent);
 8001160:	bf14      	ite	ne
 8001162:	4325      	orrne	r5, r4
          CLEAR_BIT(EXTI->EMR, iocurrent);
 8001164:	43a5      	biceq	r5, r4
 8001166:	605d      	str	r5, [r3, #4]
          SET_BIT(EXTI->IMR, iocurrent);
 8001168:	681d      	ldr	r5, [r3, #0]
        if ((GPIO_Init->Mode & GPIO_MODE_IT) == GPIO_MODE_IT)
 800116a:	f419 3f80 	tst.w	r9, #65536	@ 0x10000
          SET_BIT(EXTI->IMR, iocurrent);
 800116e:	bf14      	ite	ne
 8001170:	4325      	orrne	r5, r4
          CLEAR_BIT(EXTI->IMR, iocurrent);
 8001172:	43a5      	biceq	r5, r4
 8001174:	601d      	str	r5, [r3, #0]
	position++;
 8001176:	3601      	adds	r6, #1
 8001178:	e779      	b.n	800106e <HAL_GPIO_Init+0x16>
      switch (GPIO_Init->Mode)
 800117a:	f8df 9078 	ldr.w	r9, [pc, #120]	@ 80011f4 <HAL_GPIO_Init+0x19c>
 800117e:	454d      	cmp	r5, r9
 8001180:	d008      	beq.n	8001194 <HAL_GPIO_Init+0x13c>
 8001182:	d811      	bhi.n	80011a8 <HAL_GPIO_Init+0x150>
 8001184:	f5a9 1980 	sub.w	r9, r9, #1048576	@ 0x100000
 8001188:	454d      	cmp	r5, r9
 800118a:	d003      	beq.n	8001194 <HAL_GPIO_Init+0x13c>
 800118c:	4575      	cmp	r5, lr
 800118e:	d001      	beq.n	8001194 <HAL_GPIO_Init+0x13c>
 8001190:	4545      	cmp	r5, r8
 8001192:	d18b      	bne.n	80010ac <HAL_GPIO_Init+0x54>
          if (GPIO_Init->Pull == GPIO_NOPULL)
 8001194:	688a      	ldr	r2, [r1, #8]
 8001196:	b1e2      	cbz	r2, 80011d2 <HAL_GPIO_Init+0x17a>
          else if (GPIO_Init->Pull == GPIO_PULLUP)
 8001198:	2a01      	cmp	r2, #1
            GPIOx->BSRR = ioposition;
 800119a:	bf08      	it	eq
 800119c:	6107      	streq	r7, [r0, #16]
            config = GPIO_CR_MODE_INPUT + GPIO_CR_CNF_INPUT_PU_PD;
 800119e:	f04f 0208 	mov.w	r2, #8
            GPIOx->BRR = ioposition;
 80011a2:	bf18      	it	ne
 80011a4:	6147      	strne	r7, [r0, #20]
 80011a6:	e781      	b.n	80010ac <HAL_GPIO_Init+0x54>
      switch (GPIO_Init->Mode)
 80011a8:	f8df 904c 	ldr.w	r9, [pc, #76]	@ 80011f8 <HAL_GPIO_Init+0x1a0>
 80011ac:	454d      	cmp	r5, r9
 80011ae:	d0f1      	beq.n	8001194 <HAL_GPIO_Init+0x13c>
 80011b0:	f509 3980 	add.w	r9, r9, #65536	@ 0x10000
 80011b4:	454d      	cmp	r5, r9
 80011b6:	e7ec      	b.n	8001192 <HAL_GPIO_Init+0x13a>
          config = GPIO_Init->Speed + GPIO_CR_CNF_GP_OUTPUT_PP;
 80011b8:	68ca      	ldr	r2, [r1, #12]
          break;
 80011ba:	e777      	b.n	80010ac <HAL_GPIO_Init+0x54>
          config = GPIO_Init->Speed + GPIO_CR_CNF_GP_OUTPUT_OD;
 80011bc:	68ca      	ldr	r2, [r1, #12]
 80011be:	3204      	adds	r2, #4
          break;
 80011c0:	e774      	b.n	80010ac <HAL_GPIO_Init+0x54>
          config = GPIO_Init->Speed + GPIO_CR_CNF_AF_OUTPUT_PP;
 80011c2:	68ca      	ldr	r2, [r1, #12]
 80011c4:	3208      	adds	r2, #8
          break;
 80011c6:	e771      	b.n	80010ac <HAL_GPIO_Init+0x54>
          config = GPIO_Init->Speed + GPIO_CR_CNF_AF_OUTPUT_OD;
 80011c8:	68ca      	ldr	r2, [r1, #12]
 80011ca:	320c      	adds	r2, #12
          break;
 80011cc:	e76e      	b.n	80010ac <HAL_GPIO_Init+0x54>
      switch (GPIO_Init->Mode)
 80011ce:	2200      	movs	r2, #0
 80011d0:	e76c      	b.n	80010ac <HAL_GPIO_Init+0x54>
            config = GPIO_CR_MODE_INPUT + GPIO_CR_CNF_INPUT_FLOATING;
 80011d2:	2204      	movs	r2, #4
 80011d4:	e76a      	b.n	80010ac <HAL_GPIO_Init+0x54>
        SET_BIT(temp, (GPIO_GET_INDEX(GPIOx)) << (4u * (position & 0x03u)));
 80011d6:	2500      	movs	r5, #0
 80011d8:	e7ac      	b.n	8001134 <HAL_GPIO_Init+0xdc>
 80011da:	2501      	movs	r5, #1
 80011dc:	e7aa      	b.n	8001134 <HAL_GPIO_Init+0xdc>
 80011de:	bf00      	nop
 80011e0:	40021000 	.word	0x40021000
 80011e4:	40010400 	.word	0x40010400
 80011e8:	10210000 	.word	0x10210000
 80011ec:	10110000 	.word	0x10110000
 80011f0:	40010800 	.word	0x40010800
 80011f4:	10220000 	.word	0x10220000
 80011f8:	10310000 	.word	0x10310000

080011fc <HAL_GPIO_ReadPin>:
  GPIO_PinState bitstatus;

  /* Check the parameters */
  assert_param(IS_GPIO_PIN(GPIO_Pin));

  if ((GPIOx->IDR & GPIO_Pin) != (uint32_t)GPIO_PIN_RESET)
 80011fc:	6883      	ldr	r3, [r0, #8]
 80011fe:	4219      	tst	r1, r3
  else
  {
    bitstatus = GPIO_PIN_RESET;
  }
  return bitstatus;
}
 8001200:	bf14      	ite	ne
 8001202:	2001      	movne	r0, #1
 8001204:	2000      	moveq	r0, #0
 8001206:	4770      	bx	lr

08001208 <HAL_GPIO_WritePin>:
{
  /* Check the parameters */
  assert_param(IS_GPIO_PIN(GPIO_Pin));
  assert_param(IS_GPIO_PIN_ACTION(PinState));

  if (PinState != GPIO_PIN_RESET)
 8001208:	b10a      	cbz	r2, 800120e <HAL_GPIO_WritePin+0x6>
  {
    GPIOx->BSRR = GPIO_Pin;
  }
  else
  {
    GPIOx->BSRR = (uint32_t)GPIO_Pin << 16u;
 800120a:	6101      	str	r1, [r0, #16]
  }
}
 800120c:	4770      	bx	lr
    GPIOx->BSRR = (uint32_t)GPIO_Pin << 16u;
 800120e:	0409      	lsls	r1, r1, #16
 8001210:	e7fb      	b.n	800120a <HAL_GPIO_WritePin+0x2>

08001212 <I2C_IsAcknowledgeFailed>:
  *                the configuration information for the specified I2C.
  * @retval HAL status
  */
static HAL_StatusTypeDef I2C_IsAcknowledgeFailed(I2C_HandleTypeDef *hi2c)
{
  if (__HAL_I2C_GET_FLAG(hi2c, I2C_FLAG_AF) == SET)
 8001212:	6801      	ldr	r1, [r0, #0]
 8001214:	2200      	movs	r2, #0
 8001216:	694b      	ldr	r3, [r1, #20]
 8001218:	f413 6380 	ands.w	r3, r3, #1024	@ 0x400
 800121c:	d010      	beq.n	8001240 <I2C_IsAcknowledgeFailed+0x2e>
  {
    /* Clear NACKF Flag */
    __HAL_I2C_CLEAR_FLAG(hi2c, I2C_FLAG_AF);
 800121e:	f46f 6380 	mvn.w	r3, #1024	@ 0x400
 8001222:	614b      	str	r3, [r1, #20]

    hi2c->PreviousState       = I2C_STATE_NONE;
    hi2c->State               = HAL_I2C_STATE_READY;
 8001224:	2320      	movs	r3, #32
    hi2c->PreviousState       = I2C_STATE_NONE;
 8001226:	6302      	str	r2, [r0, #48]	@ 0x30
    hi2c->State               = HAL_I2C_STATE_READY;
 8001228:	f880 303d 	strb.w	r3, [r0, #61]	@ 0x3d
    hi2c->Mode                = HAL_I2C_MODE_NONE;
 800122c:	f880 203e 	strb.w	r2, [r0, #62]	@ 0x3e
    hi2c->ErrorCode           |= HAL_I2C_ERROR_AF;
 8001230:	6c03      	ldr	r3, [r0, #64]	@ 0x40

    /* Process Unlocked */
    __HAL_UNLOCK(hi2c);
 8001232:	f880 203c 	strb.w	r2, [r0, #60]	@ 0x3c
    hi2c->ErrorCode           |= HAL_I2C_ERROR_AF;
 8001236:	f043 0304 	orr.w	r3, r3, #4
 800123a:	6403      	str	r3, [r0, #64]	@ 0x40

    return HAL_ERROR;
 800123c:	2001      	movs	r0, #1
 800123e:	4770      	bx	lr
  }
  return HAL_OK;
 8001240:	4618      	mov	r0, r3
}
 8001242:	4770      	bx	lr

08001244 <I2C_WaitOnFlagUntilTimeout>:
{
 8001244:	e92d 46f8 	stmdb	sp!, {r3, r4, r5, r6, r7, r9, sl, lr}
 8001248:	4606      	mov	r6, r0
 800124a:	460f      	mov	r7, r1
 800124c:	4691      	mov	r9, r2
 800124e:	461d      	mov	r5, r3
  while (__HAL_I2C_GET_FLAG(hi2c, Flag) == Status)
 8001250:	ea4f 4a11 	mov.w	sl, r1, lsr #16
 8001254:	6833      	ldr	r3, [r6, #0]
 8001256:	f1ba 0f01 	cmp.w	sl, #1
 800125a:	bf0c      	ite	eq
 800125c:	695c      	ldreq	r4, [r3, #20]
 800125e:	699c      	ldrne	r4, [r3, #24]
 8001260:	ea27 0404 	bic.w	r4, r7, r4
 8001264:	b2a4      	uxth	r4, r4
 8001266:	fab4 f484 	clz	r4, r4
 800126a:	0964      	lsrs	r4, r4, #5
 800126c:	45a1      	cmp	r9, r4
 800126e:	d001      	beq.n	8001274 <I2C_WaitOnFlagUntilTimeout+0x30>
  return HAL_OK;
 8001270:	2000      	movs	r0, #0
 8001272:	e025      	b.n	80012c0 <I2C_WaitOnFlagUntilTimeout+0x7c>
    if (Timeout != HAL_MAX_DELAY)
 8001274:	1c6a      	adds	r2, r5, #1
 8001276:	d0ee      	beq.n	8001256 <I2C_WaitOnFlagUntilTimeout+0x12>
      if (((HAL_GetTick() - Tickstart) > Timeout) || (Timeout == 0U))
 8001278:	f7ff fe80 	bl	8000f7c <HAL_GetTick>
 800127c:	9b08      	ldr	r3, [sp, #32]
 800127e:	1ac0      	subs	r0, r0, r3
 8001280:	42a8      	cmp	r0, r5
 8001282:	d801      	bhi.n	8001288 <I2C_WaitOnFlagUntilTimeout+0x44>
 8001284:	2d00      	cmp	r5, #0
 8001286:	d1e5      	bne.n	8001254 <I2C_WaitOnFlagUntilTimeout+0x10>
        if ((__HAL_I2C_GET_FLAG(hi2c, Flag) == Status))
 8001288:	6833      	ldr	r3, [r6, #0]
 800128a:	f1ba 0f01 	cmp.w	sl, #1
 800128e:	bf0c      	ite	eq
 8001290:	695b      	ldreq	r3, [r3, #20]
 8001292:	699b      	ldrne	r3, [r3, #24]
 8001294:	ea27 0303 	bic.w	r3, r7, r3
 8001298:	b29b      	uxth	r3, r3
 800129a:	fab3 f383 	clz	r3, r3
 800129e:	095b      	lsrs	r3, r3, #5
 80012a0:	4599      	cmp	r9, r3
 80012a2:	d1d7      	bne.n	8001254 <I2C_WaitOnFlagUntilTimeout+0x10>
          hi2c->PreviousState     = I2C_STATE_NONE;
 80012a4:	2300      	movs	r3, #0
          hi2c->State             = HAL_I2C_STATE_READY;
 80012a6:	2220      	movs	r2, #32
          return HAL_ERROR;
 80012a8:	2001      	movs	r0, #1
          hi2c->PreviousState     = I2C_STATE_NONE;
 80012aa:	6333      	str	r3, [r6, #48]	@ 0x30
          hi2c->State             = HAL_I2C_STATE_READY;
 80012ac:	f886 203d 	strb.w	r2, [r6, #61]	@ 0x3d
          hi2c->Mode              = HAL_I2C_MODE_NONE;
 80012b0:	f886 303e 	strb.w	r3, [r6, #62]	@ 0x3e
          hi2c->ErrorCode         |= HAL_I2C_ERROR_TIMEOUT;
 80012b4:	6c32      	ldr	r2, [r6, #64]	@ 0x40
          __HAL_UNLOCK(hi2c);
 80012b6:	f886 303c 	strb.w	r3, [r6, #60]	@ 0x3c
          hi2c->ErrorCode         |= HAL_I2C_ERROR_TIMEOUT;
 80012ba:	f042 0220 	orr.w	r2, r2, #32
 80012be:	6432      	str	r2, [r6, #64]	@ 0x40
}
 80012c0:	e8bd 86f8 	ldmia.w	sp!, {r3, r4, r5, r6, r7, r9, sl, pc}

080012c4 <I2C_WaitOnMasterAddressFlagUntilTimeout>:
{
 80012c4:	e92d 41f0 	stmdb	sp!, {r4, r5, r6, r7, r8, lr}
 80012c8:	4604      	mov	r4, r0
 80012ca:	460f      	mov	r7, r1
 80012cc:	4616      	mov	r6, r2
 80012ce:	4698      	mov	r8, r3
  while (__HAL_I2C_GET_FLAG(hi2c, Flag) == RESET)
 80012d0:	6825      	ldr	r5, [r4, #0]
 80012d2:	6968      	ldr	r0, [r5, #20]
 80012d4:	ea27 0000 	bic.w	r0, r7, r0
 80012d8:	b280      	uxth	r0, r0
 80012da:	b1c0      	cbz	r0, 800130e <I2C_WaitOnMasterAddressFlagUntilTimeout+0x4a>
    if (__HAL_I2C_GET_FLAG(hi2c, I2C_FLAG_AF) == SET)
 80012dc:	696b      	ldr	r3, [r5, #20]
 80012de:	055a      	lsls	r2, r3, #21
 80012e0:	d517      	bpl.n	8001312 <I2C_WaitOnMasterAddressFlagUntilTimeout+0x4e>
      SET_BIT(hi2c->Instance->CR1, I2C_CR1_STOP);
 80012e2:	682b      	ldr	r3, [r5, #0]
      hi2c->State               = HAL_I2C_STATE_READY;
 80012e4:	2220      	movs	r2, #32
      SET_BIT(hi2c->Instance->CR1, I2C_CR1_STOP);
 80012e6:	f443 7300 	orr.w	r3, r3, #512	@ 0x200
 80012ea:	602b      	str	r3, [r5, #0]
      __HAL_I2C_CLEAR_FLAG(hi2c, I2C_FLAG_AF);
 80012ec:	f46f 6380 	mvn.w	r3, #1024	@ 0x400
 80012f0:	616b      	str	r3, [r5, #20]
      hi2c->PreviousState       = I2C_STATE_NONE;
 80012f2:	2300      	movs	r3, #0
 80012f4:	6323      	str	r3, [r4, #48]	@ 0x30
      hi2c->State               = HAL_I2C_STATE_READY;
 80012f6:	f884 203d 	strb.w	r2, [r4, #61]	@ 0x3d
      hi2c->Mode                = HAL_I2C_MODE_NONE;
 80012fa:	f884 303e 	strb.w	r3, [r4, #62]	@ 0x3e
      hi2c->ErrorCode           |= HAL_I2C_ERROR_AF;
 80012fe:	6c23      	ldr	r3, [r4, #64]	@ 0x40
 8001300:	f043 0304 	orr.w	r3, r3, #4
          hi2c->ErrorCode           |= HAL_I2C_ERROR_TIMEOUT;
 8001304:	6423      	str	r3, [r4, #64]	@ 0x40
          __HAL_UNLOCK(hi2c);
 8001306:	2300      	movs	r3, #0
      return HAL_ERROR;
 8001308:	2001      	movs	r0, #1
          __HAL_UNLOCK(hi2c);
 800130a:	f884 303c 	strb.w	r3, [r4, #60]	@ 0x3c
}
 800130e:	e8bd 81f0 	ldmia.w	sp!, {r4, r5, r6, r7, r8, pc}
    if (Timeout != HAL_MAX_DELAY)
 8001312:	1c73      	adds	r3, r6, #1
 8001314:	d0dd      	beq.n	80012d2 <I2C_WaitOnMasterAddressFlagUntilTimeout+0xe>
      if (((HAL_GetTick() - Tickstart) > Timeout) || (Timeout == 0U))
 8001316:	f7ff fe31 	bl	8000f7c <HAL_GetTick>
 800131a:	eba0 0008 	sub.w	r0, r0, r8
 800131e:	42b0      	cmp	r0, r6
 8001320:	d801      	bhi.n	8001326 <I2C_WaitOnMasterAddressFlagUntilTimeout+0x62>
 8001322:	2e00      	cmp	r6, #0
 8001324:	d1d4      	bne.n	80012d0 <I2C_WaitOnMasterAddressFlagUntilTimeout+0xc>
        if ((__HAL_I2C_GET_FLAG(hi2c, Flag) == RESET))
 8001326:	6823      	ldr	r3, [r4, #0]
 8001328:	695a      	ldr	r2, [r3, #20]
 800132a:	ea27 0202 	bic.w	r2, r7, r2
 800132e:	b292      	uxth	r2, r2
 8001330:	2a00      	cmp	r2, #0
 8001332:	d0cd      	beq.n	80012d0 <I2C_WaitOnMasterAddressFlagUntilTimeout+0xc>
          hi2c->PreviousState       = I2C_STATE_NONE;
 8001334:	2300      	movs	r3, #0
          hi2c->State               = HAL_I2C_STATE_READY;
 8001336:	2220      	movs	r2, #32
          hi2c->PreviousState       = I2C_STATE_NONE;
 8001338:	6323      	str	r3, [r4, #48]	@ 0x30
          hi2c->State               = HAL_I2C_STATE_READY;
 800133a:	f884 203d 	strb.w	r2, [r4, #61]	@ 0x3d
          hi2c->Mode                = HAL_I2C_MODE_NONE;
 800133e:	f884 303e 	strb.w	r3, [r4, #62]	@ 0x3e
          hi2c->ErrorCode           |= HAL_I2C_ERROR_TIMEOUT;
 8001342:	6c23      	ldr	r3, [r4, #64]	@ 0x40
 8001344:	4313      	orrs	r3, r2
 8001346:	e7dd      	b.n	8001304 <I2C_WaitOnMasterAddressFlagUntilTimeout+0x40>

08001348 <I2C_WaitOnTXEFlagUntilTimeout>:
{
 8001348:	b570      	push	{r4, r5, r6, lr}
 800134a:	4604      	mov	r4, r0
 800134c:	460d      	mov	r5, r1
 800134e:	4616      	mov	r6, r2
  while (__HAL_I2C_GET_FLAG(hi2c, I2C_FLAG_TXE) == RESET)
 8001350:	6823      	ldr	r3, [r4, #0]
 8001352:	695b      	ldr	r3, [r3, #20]
 8001354:	061b      	lsls	r3, r3, #24
 8001356:	d501      	bpl.n	800135c <I2C_WaitOnTXEFlagUntilTimeout+0x14>
  return HAL_OK;
 8001358:	2000      	movs	r0, #0
 800135a:	e01e      	b.n	800139a <I2C_WaitOnTXEFlagUntilTimeout+0x52>
    if (I2C_IsAcknowledgeFailed(hi2c) != HAL_OK)
 800135c:	4620      	mov	r0, r4
 800135e:	f7ff ff58 	bl	8001212 <I2C_IsAcknowledgeFailed>
 8001362:	b9c8      	cbnz	r0, 8001398 <I2C_WaitOnTXEFlagUntilTimeout+0x50>
    if (Timeout != HAL_MAX_DELAY)
 8001364:	1c6a      	adds	r2, r5, #1
 8001366:	d0f3      	beq.n	8001350 <I2C_WaitOnTXEFlagUntilTimeout+0x8>
      if (((HAL_GetTick() - Tickstart) > Timeout) || (Timeout == 0U))
 8001368:	f7ff fe08 	bl	8000f7c <HAL_GetTick>
 800136c:	1b80      	subs	r0, r0, r6
 800136e:	42a8      	cmp	r0, r5
 8001370:	d801      	bhi.n	8001376 <I2C_WaitOnTXEFlagUntilTimeout+0x2e>
 8001372:	2d00      	cmp	r5, #0
 8001374:	d1ec      	bne.n	8001350 <I2C_WaitOnTXEFlagUntilTimeout+0x8>
        if ((__HAL_I2C_GET_FLAG(hi2c, I2C_FLAG_TXE) == RESET))
 8001376:	6823      	ldr	r3, [r4, #0]
 8001378:	695b      	ldr	r3, [r3, #20]
 800137a:	f013 0380 	ands.w	r3, r3, #128	@ 0x80
 800137e:	d1e7      	bne.n	8001350 <I2C_WaitOnTXEFlagUntilTimeout+0x8>
          hi2c->State               = HAL_I2C_STATE_READY;
 8001380:	2220      	movs	r2, #32
          hi2c->PreviousState       = I2C_STATE_NONE;
 8001382:	6323      	str	r3, [r4, #48]	@ 0x30
          hi2c->State               = HAL_I2C_STATE_READY;
 8001384:	f884 203d 	strb.w	r2, [r4, #61]	@ 0x3d
          hi2c->Mode                = HAL_I2C_MODE_NONE;
 8001388:	f884 303e 	strb.w	r3, [r4, #62]	@ 0x3e
          hi2c->ErrorCode           |= HAL_I2C_ERROR_TIMEOUT;
 800138c:	6c22      	ldr	r2, [r4, #64]	@ 0x40
          __HAL_UNLOCK(hi2c);
 800138e:	f884 303c 	strb.w	r3, [r4, #60]	@ 0x3c
          hi2c->ErrorCode           |= HAL_I2C_ERROR_TIMEOUT;
 8001392:	f042 0220 	orr.w	r2, r2, #32
 8001396:	6422      	str	r2, [r4, #64]	@ 0x40
      return HAL_ERROR;
 8001398:	2001      	movs	r0, #1
}
 800139a:	bd70      	pop	{r4, r5, r6, pc}

0800139c <I2C_RequestMemoryWrite>:
{
 800139c:	e92d 43f0 	stmdb	sp!, {r4, r5, r6, r7, r8, r9, lr}
 80013a0:	4615      	mov	r5, r2
  SET_BIT(hi2c->Instance->CR1, I2C_CR1_START);
 80013a2:	6802      	ldr	r2, [r0, #0]
{
 80013a4:	4699      	mov	r9, r3
  SET_BIT(hi2c->Instance->CR1, I2C_CR1_START);
 80013a6:	6813      	ldr	r3, [r2, #0]
{
 80013a8:	b085      	sub	sp, #20
  SET_BIT(hi2c->Instance->CR1, I2C_CR1_START);
 80013aa:	f443 7380 	orr.w	r3, r3, #256	@ 0x100
 80013ae:	6013      	str	r3, [r2, #0]
{
 80013b0:	e9dd 780c 	ldrd	r7, r8, [sp, #48]	@ 0x30
 80013b4:	460e      	mov	r6, r1
  if (I2C_WaitOnFlagUntilTimeout(hi2c, I2C_FLAG_SB, RESET, Timeout, Tickstart) != HAL_OK)
 80013b6:	463b      	mov	r3, r7
 80013b8:	2200      	movs	r2, #0
 80013ba:	f04f 1101 	mov.w	r1, #65537	@ 0x10001
 80013be:	f8cd 8000 	str.w	r8, [sp]
{
 80013c2:	4604      	mov	r4, r0
  if (I2C_WaitOnFlagUntilTimeout(hi2c, I2C_FLAG_SB, RESET, Timeout, Tickstart) != HAL_OK)
 80013c4:	f7ff ff3e 	bl	8001244 <I2C_WaitOnFlagUntilTimeout>
 80013c8:	6823      	ldr	r3, [r4, #0]
 80013ca:	b138      	cbz	r0, 80013dc <I2C_RequestMemoryWrite+0x40>
    if (READ_BIT(hi2c->Instance->CR1, I2C_CR1_START) == I2C_CR1_START)
 80013cc:	681b      	ldr	r3, [r3, #0]
 80013ce:	05db      	lsls	r3, r3, #23
 80013d0:	d502      	bpl.n	80013d8 <I2C_RequestMemoryWrite+0x3c>
      hi2c->ErrorCode = HAL_I2C_WRONG_START;
 80013d2:	f44f 7300 	mov.w	r3, #512	@ 0x200
 80013d6:	6423      	str	r3, [r4, #64]	@ 0x40
    return HAL_TIMEOUT;
 80013d8:	2603      	movs	r6, #3
 80013da:	e020      	b.n	800141e <I2C_RequestMemoryWrite+0x82>
  hi2c->Instance->DR = I2C_7BIT_ADD_WRITE(DevAddress);
 80013dc:	f006 06fe 	and.w	r6, r6, #254	@ 0xfe
 80013e0:	611e      	str	r6, [r3, #16]
  if (I2C_WaitOnMasterAddressFlagUntilTimeout(hi2c, I2C_FLAG_ADDR, Timeout, Tickstart) != HAL_OK)
 80013e2:	463a      	mov	r2, r7
 80013e4:	4643      	mov	r3, r8
 80013e6:	4620      	mov	r0, r4
 80013e8:	4918      	ldr	r1, [pc, #96]	@ (800144c <I2C_RequestMemoryWrite+0xb0>)
 80013ea:	f7ff ff6b 	bl	80012c4 <I2C_WaitOnMasterAddressFlagUntilTimeout>
 80013ee:	b9a8      	cbnz	r0, 800141c <I2C_RequestMemoryWrite+0x80>
  __HAL_I2C_CLEAR_ADDRFLAG(hi2c);
 80013f0:	6823      	ldr	r3, [r4, #0]
 80013f2:	9003      	str	r0, [sp, #12]
 80013f4:	695a      	ldr	r2, [r3, #20]
  if (I2C_WaitOnTXEFlagUntilTimeout(hi2c, Timeout, Tickstart) != HAL_OK)
 80013f6:	4639      	mov	r1, r7
  __HAL_I2C_CLEAR_ADDRFLAG(hi2c);
 80013f8:	9203      	str	r2, [sp, #12]
 80013fa:	699b      	ldr	r3, [r3, #24]
  if (I2C_WaitOnTXEFlagUntilTimeout(hi2c, Timeout, Tickstart) != HAL_OK)
 80013fc:	4642      	mov	r2, r8
  __HAL_I2C_CLEAR_ADDRFLAG(hi2c);
 80013fe:	9303      	str	r3, [sp, #12]
  if (I2C_WaitOnTXEFlagUntilTimeout(hi2c, Timeout, Tickstart) != HAL_OK)
 8001400:	4620      	mov	r0, r4
  __HAL_I2C_CLEAR_ADDRFLAG(hi2c);
 8001402:	9b03      	ldr	r3, [sp, #12]
  if (I2C_WaitOnTXEFlagUntilTimeout(hi2c, Timeout, Tickstart) != HAL_OK)
 8001404:	f7ff ffa0 	bl	8001348 <I2C_WaitOnTXEFlagUntilTimeout>
 8001408:	4606      	mov	r6, r0
 800140a:	b160      	cbz	r0, 8001426 <I2C_RequestMemoryWrite+0x8a>
    if (hi2c->ErrorCode == HAL_I2C_ERROR_AF)
 800140c:	6c23      	ldr	r3, [r4, #64]	@ 0x40
 800140e:	2b04      	cmp	r3, #4
      SET_BIT(hi2c->Instance->CR1, I2C_CR1_STOP);
 8001410:	bf01      	itttt	eq
 8001412:	6822      	ldreq	r2, [r4, #0]
 8001414:	6813      	ldreq	r3, [r2, #0]
 8001416:	f443 7300 	orreq.w	r3, r3, #512	@ 0x200
 800141a:	6013      	streq	r3, [r2, #0]
    return HAL_ERROR;
 800141c:	2601      	movs	r6, #1
}
 800141e:	4630      	mov	r0, r6
 8001420:	b005      	add	sp, #20
 8001422:	e8bd 83f0 	ldmia.w	sp!, {r4, r5, r6, r7, r8, r9, pc}
  if (MemAddSize == I2C_MEMADD_SIZE_8BIT)
 8001426:	f1b9 0f01 	cmp.w	r9, #1
      SET_BIT(hi2c->Instance->CR1, I2C_CR1_STOP);
 800142a:	6823      	ldr	r3, [r4, #0]
  if (MemAddSize == I2C_MEMADD_SIZE_8BIT)
 800142c:	d102      	bne.n	8001434 <I2C_RequestMemoryWrite+0x98>
    hi2c->Instance->DR = I2C_MEM_ADD_LSB(MemAddress);
 800142e:	b2ed      	uxtb	r5, r5
 8001430:	611d      	str	r5, [r3, #16]
 8001432:	e7f4      	b.n	800141e <I2C_RequestMemoryWrite+0x82>
    hi2c->Instance->DR = I2C_MEM_ADD_MSB(MemAddress);
 8001434:	0a2a      	lsrs	r2, r5, #8
 8001436:	611a      	str	r2, [r3, #16]
    if (I2C_WaitOnTXEFlagUntilTimeout(hi2c, Timeout, Tickstart) != HAL_OK)
 8001438:	4639      	mov	r1, r7
 800143a:	4642      	mov	r2, r8
 800143c:	4620      	mov	r0, r4
 800143e:	f7ff ff83 	bl	8001348 <I2C_WaitOnTXEFlagUntilTimeout>
 8001442:	2800      	cmp	r0, #0
 8001444:	d1e2      	bne.n	800140c <I2C_RequestMemoryWrite+0x70>
    hi2c->Instance->DR = I2C_MEM_ADD_LSB(MemAddress);
 8001446:	6823      	ldr	r3, [r4, #0]
 8001448:	e7f1      	b.n	800142e <I2C_RequestMemoryWrite+0x92>
 800144a:	bf00      	nop
 800144c:	00010002 	.word	0x00010002

08001450 <I2C_WaitOnBTFFlagUntilTimeout>:
{
 8001450:	b570      	push	{r4, r5, r6, lr}
 8001452:	4604      	mov	r4, r0
 8001454:	460d      	mov	r5, r1
 8001456:	4616      	mov	r6, r2
  while (__HAL_I2C_GET_FLAG(hi2c, I2C_FLAG_BTF) == RESET)
 8001458:	6823      	ldr	r3, [r4, #0]
 800145a:	695b      	ldr	r3, [r3, #20]
 800145c:	075b      	lsls	r3, r3, #29
 800145e:	d501      	bpl.n	8001464 <I2C_WaitOnBTFFlagUntilTimeout+0x14>
  return HAL_OK;
 8001460:	2000      	movs	r0, #0
 8001462:	e01e      	b.n	80014a2 <I2C_WaitOnBTFFlagUntilTimeout+0x52>
    if (I2C_IsAcknowledgeFailed(hi2c) != HAL_OK)
 8001464:	4620      	mov	r0, r4
 8001466:	f7ff fed4 	bl	8001212 <I2C_IsAcknowledgeFailed>
 800146a:	b9c8      	cbnz	r0, 80014a0 <I2C_WaitOnBTFFlagUntilTimeout+0x50>
    if (Timeout != HAL_MAX_DELAY)
 800146c:	1c6a      	adds	r2, r5, #1
 800146e:	d0f3      	beq.n	8001458 <I2C_WaitOnBTFFlagUntilTimeout+0x8>
      if (((HAL_GetTick() - Tickstart) > Timeout) || (Timeout == 0U))
 8001470:	f7ff fd84 	bl	8000f7c <HAL_GetTick>
 8001474:	1b80      	subs	r0, r0, r6
 8001476:	42a8      	cmp	r0, r5
 8001478:	d801      	bhi.n	800147e <I2C_WaitOnBTFFlagUntilTimeout+0x2e>
 800147a:	2d00      	cmp	r5, #0
 800147c:	d1ec      	bne.n	8001458 <I2C_WaitOnBTFFlagUntilTimeout+0x8>
        if ((__HAL_I2C_GET_FLAG(hi2c, I2C_FLAG_BTF) == RESET))
 800147e:	6823      	ldr	r3, [r4, #0]
 8001480:	695b      	ldr	r3, [r3, #20]
 8001482:	f013 0304 	ands.w	r3, r3, #4
 8001486:	d1e7      	bne.n	8001458 <I2C_WaitOnBTFFlagUntilTimeout+0x8>
          hi2c->State               = HAL_I2C_STATE_READY;
 8001488:	2220      	movs	r2, #32
          hi2c->PreviousState       = I2C_STATE_NONE;
 800148a:	6323      	str	r3, [r4, #48]	@ 0x30
          hi2c->State               = HAL_I2C_STATE_READY;
 800148c:	f884 203d 	strb.w	r2, [r4, #61]	@ 0x3d
          hi2c->Mode                = HAL_I2C_MODE_NONE;
 8001490:	f884 303e 	strb.w	r3, [r4, #62]	@ 0x3e
          hi2c->ErrorCode           |= HAL_I2C_ERROR_TIMEOUT;
 8001494:	6c22      	ldr	r2, [r4, #64]	@ 0x40
          __HAL_UNLOCK(hi2c);
 8001496:	f884 303c 	strb.w	r3, [r4, #60]	@ 0x3c
          hi2c->ErrorCode           |= HAL_I2C_ERROR_TIMEOUT;
 800149a:	f042 0220 	orr.w	r2, r2, #32
 800149e:	6422      	str	r2, [r4, #64]	@ 0x40
      return HAL_ERROR;
 80014a0:	2001      	movs	r0, #1
}
 80014a2:	bd70      	pop	{r4, r5, r6, pc}

080014a4 <HAL_I2C_Init>:
{
 80014a4:	b570      	push	{r4, r5, r6, lr}
  if (hi2c == NULL)
 80014a6:	4604      	mov	r4, r0
 80014a8:	b908      	cbnz	r0, 80014ae <HAL_I2C_Init+0xa>
    return HAL_ERROR;
 80014aa:	2001      	movs	r0, #1
}
 80014ac:	bd70      	pop	{r4, r5, r6, pc}
  if (hi2c->State == HAL_I2C_STATE_RESET)
 80014ae:	f890 303d 	ldrb.w	r3, [r0, #61]	@ 0x3d
 80014b2:	f003 02ff 	and.w	r2, r3, #255	@ 0xff
 80014b6:	b91b      	cbnz	r3, 80014c0 <HAL_I2C_Init+0x1c>
    hi2c->Lock = HAL_UNLOCKED;
 80014b8:	f880 203c 	strb.w	r2, [r0, #60]	@ 0x3c
    HAL_I2C_MspInit(hi2c);
 80014bc:	f7ff fc86 	bl	8000dcc <HAL_I2C_MspInit>
  hi2c->State = HAL_I2C_STATE_BUSY;
 80014c0:	2324      	movs	r3, #36	@ 0x24
 80014c2:	f884 303d 	strb.w	r3, [r4, #61]	@ 0x3d
  __HAL_I2C_DISABLE(hi2c);
 80014c6:	6823      	ldr	r3, [r4, #0]
 80014c8:	681a      	ldr	r2, [r3, #0]
 80014ca:	f022 0201 	bic.w	r2, r2, #1
 80014ce:	601a      	str	r2, [r3, #0]
  hi2c->Instance->CR1 |= I2C_CR1_SWRST;
 80014d0:	681a      	ldr	r2, [r3, #0]
 80014d2:	f442 4200 	orr.w	r2, r2, #32768	@ 0x8000
 80014d6:	601a      	str	r2, [r3, #0]
  hi2c->Instance->CR1 &= ~I2C_CR1_SWRST;
 80014d8:	681a      	ldr	r2, [r3, #0]
 80014da:	f422 4200 	bic.w	r2, r2, #32768	@ 0x8000
 80014de:	601a      	str	r2, [r3, #0]
  pclk1 = HAL_RCC_GetPCLK1Freq();
 80014e0:	f000 fb76 	bl	8001bd0 <HAL_RCC_GetPCLK1Freq>
  if (I2C_MIN_PCLK_FREQ(pclk1, hi2c->Init.ClockSpeed) == 1U)
 80014e4:	4b3f      	ldr	r3, [pc, #252]	@ (80015e4 <HAL_I2C_Init+0x140>)
 80014e6:	6865      	ldr	r5, [r4, #4]
 80014e8:	429d      	cmp	r5, r3
 80014ea:	bf94      	ite	ls
 80014ec:	4b3e      	ldrls	r3, [pc, #248]	@ (80015e8 <HAL_I2C_Init+0x144>)
 80014ee:	4b3f      	ldrhi	r3, [pc, #252]	@ (80015ec <HAL_I2C_Init+0x148>)
 80014f0:	4298      	cmp	r0, r3
 80014f2:	bf8c      	ite	hi
 80014f4:	2300      	movhi	r3, #0
 80014f6:	2301      	movls	r3, #1
 80014f8:	2b00      	cmp	r3, #0
 80014fa:	d1d6      	bne.n	80014aa <HAL_I2C_Init+0x6>
  MODIFY_REG(hi2c->Instance->TRISE, I2C_TRISE_TRISE, I2C_RISE_TIME(freqrange, hi2c->Init.ClockSpeed));
 80014fc:	4e39      	ldr	r6, [pc, #228]	@ (80015e4 <HAL_I2C_Init+0x140>)
  freqrange = I2C_FREQRANGE(pclk1);
 80014fe:	4b3c      	ldr	r3, [pc, #240]	@ (80015f0 <HAL_I2C_Init+0x14c>)
  MODIFY_REG(hi2c->Instance->TRISE, I2C_TRISE_TRISE, I2C_RISE_TIME(freqrange, hi2c->Init.ClockSpeed));
 8001500:	42b5      	cmp	r5, r6
  freqrange = I2C_FREQRANGE(pclk1);
 8001502:	fbb0 f3f3 	udiv	r3, r0, r3
  MODIFY_REG(hi2c->Instance->TRISE, I2C_TRISE_TRISE, I2C_RISE_TIME(freqrange, hi2c->Init.ClockSpeed));
 8001506:	bf88      	it	hi
 8001508:	f44f 7696 	movhi.w	r6, #300	@ 0x12c
  MODIFY_REG(hi2c->Instance->CR2, I2C_CR2_FREQ, freqrange);
 800150c:	6822      	ldr	r2, [r4, #0]
 800150e:	6851      	ldr	r1, [r2, #4]
 8001510:	f021 013f 	bic.w	r1, r1, #63	@ 0x3f
 8001514:	ea41 0103 	orr.w	r1, r1, r3
  MODIFY_REG(hi2c->Instance->TRISE, I2C_TRISE_TRISE, I2C_RISE_TIME(freqrange, hi2c->Init.ClockSpeed));
 8001518:	bf82      	ittt	hi
 800151a:	4373      	mulhi	r3, r6
 800151c:	f44f 767a 	movhi.w	r6, #1000	@ 0x3e8
 8001520:	fbb3 f3f6 	udivhi	r3, r3, r6
  MODIFY_REG(hi2c->Instance->CR2, I2C_CR2_FREQ, freqrange);
 8001524:	6051      	str	r1, [r2, #4]
  MODIFY_REG(hi2c->Instance->TRISE, I2C_TRISE_TRISE, I2C_RISE_TIME(freqrange, hi2c->Init.ClockSpeed));
 8001526:	6a11      	ldr	r1, [r2, #32]
 8001528:	3301      	adds	r3, #1
 800152a:	f021 013f 	bic.w	r1, r1, #63	@ 0x3f
 800152e:	430b      	orrs	r3, r1
 8001530:	6213      	str	r3, [r2, #32]
  MODIFY_REG(hi2c->Instance->CCR, (I2C_CCR_FS | I2C_CCR_DUTY | I2C_CCR_CCR), I2C_SPEED(pclk1, hi2c->Init.ClockSpeed, hi2c->Init.DutyCycle));
 8001532:	69d1      	ldr	r1, [r2, #28]
 8001534:	1e43      	subs	r3, r0, #1
 8001536:	482b      	ldr	r0, [pc, #172]	@ (80015e4 <HAL_I2C_Init+0x140>)
 8001538:	f421 414f 	bic.w	r1, r1, #52992	@ 0xcf00
 800153c:	4285      	cmp	r5, r0
 800153e:	f021 01ff 	bic.w	r1, r1, #255	@ 0xff
 8001542:	d832      	bhi.n	80015aa <HAL_I2C_Init+0x106>
 8001544:	006d      	lsls	r5, r5, #1
 8001546:	fbb3 f3f5 	udiv	r3, r3, r5
 800154a:	f640 70fc 	movw	r0, #4092	@ 0xffc
 800154e:	3301      	adds	r3, #1
 8001550:	4203      	tst	r3, r0
 8001552:	d042      	beq.n	80015da <HAL_I2C_Init+0x136>
 8001554:	f3c3 030b 	ubfx	r3, r3, #0, #12
 8001558:	4319      	orrs	r1, r3
 800155a:	61d1      	str	r1, [r2, #28]
  MODIFY_REG(hi2c->Instance->CR1, (I2C_CR1_ENGC | I2C_CR1_NOSTRETCH), (hi2c->Init.GeneralCallMode | hi2c->Init.NoStretchMode));
 800155c:	6811      	ldr	r1, [r2, #0]
 800155e:	e9d4 3007 	ldrd	r3, r0, [r4, #28]
 8001562:	f021 01c0 	bic.w	r1, r1, #192	@ 0xc0
 8001566:	4303      	orrs	r3, r0
 8001568:	430b      	orrs	r3, r1
 800156a:	6013      	str	r3, [r2, #0]
  MODIFY_REG(hi2c->Instance->OAR1, (I2C_OAR1_ADDMODE | I2C_OAR1_ADD8_9 | I2C_OAR1_ADD1_7 | I2C_OAR1_ADD0), (hi2c->Init.AddressingMode | hi2c->Init.OwnAddress1));
 800156c:	6891      	ldr	r1, [r2, #8]
 800156e:	e9d4 0303 	ldrd	r0, r3, [r4, #12]
 8001572:	f421 4103 	bic.w	r1, r1, #33536	@ 0x8300
 8001576:	4303      	orrs	r3, r0
 8001578:	f021 01ff 	bic.w	r1, r1, #255	@ 0xff
 800157c:	430b      	orrs	r3, r1
 800157e:	6093      	str	r3, [r2, #8]
  MODIFY_REG(hi2c->Instance->OAR2, (I2C_OAR2_ENDUAL | I2C_OAR2_ADD2), (hi2c->Init.DualAddressMode | hi2c->Init.OwnAddress2));
 8001580:	68d1      	ldr	r1, [r2, #12]
 8001582:	e9d4 3005 	ldrd	r3, r0, [r4, #20]
 8001586:	f021 01ff 	bic.w	r1, r1, #255	@ 0xff
 800158a:	4303      	orrs	r3, r0
 800158c:	430b      	orrs	r3, r1
 800158e:	60d3      	str	r3, [r2, #12]
  __HAL_I2C_ENABLE(hi2c);
 8001590:	6813      	ldr	r3, [r2, #0]
  hi2c->ErrorCode = HAL_I2C_ERROR_NONE;
 8001592:	2000      	movs	r0, #0
  __HAL_I2C_ENABLE(hi2c);
 8001594:	f043 0301 	orr.w	r3, r3, #1
 8001598:	6013      	str	r3, [r2, #0]
  hi2c->State = HAL_I2C_STATE_READY;
 800159a:	2320      	movs	r3, #32
  hi2c->ErrorCode = HAL_I2C_ERROR_NONE;
 800159c:	6420      	str	r0, [r4, #64]	@ 0x40
  hi2c->State = HAL_I2C_STATE_READY;
 800159e:	f884 303d 	strb.w	r3, [r4, #61]	@ 0x3d
  hi2c->PreviousState = I2C_STATE_NONE;
 80015a2:	6320      	str	r0, [r4, #48]	@ 0x30
  hi2c->Mode = HAL_I2C_MODE_NONE;
 80015a4:	f884 003e 	strb.w	r0, [r4, #62]	@ 0x3e
  return HAL_OK;
 80015a8:	e780      	b.n	80014ac <HAL_I2C_Init+0x8>
  MODIFY_REG(hi2c->Instance->CCR, (I2C_CCR_FS | I2C_CCR_DUTY | I2C_CCR_CCR), I2C_SPEED(pclk1, hi2c->Init.ClockSpeed, hi2c->Init.DutyCycle));
 80015aa:	68a0      	ldr	r0, [r4, #8]
 80015ac:	b950      	cbnz	r0, 80015c4 <HAL_I2C_Init+0x120>
 80015ae:	eb05 0545 	add.w	r5, r5, r5, lsl #1
 80015b2:	fbb3 f3f5 	udiv	r3, r3, r5
 80015b6:	3301      	adds	r3, #1
 80015b8:	f3c3 030b 	ubfx	r3, r3, #0, #12
 80015bc:	b17b      	cbz	r3, 80015de <HAL_I2C_Init+0x13a>
 80015be:	f443 4300 	orr.w	r3, r3, #32768	@ 0x8000
 80015c2:	e7c9      	b.n	8001558 <HAL_I2C_Init+0xb4>
 80015c4:	2019      	movs	r0, #25
 80015c6:	4368      	muls	r0, r5
 80015c8:	fbb3 f3f0 	udiv	r3, r3, r0
 80015cc:	3301      	adds	r3, #1
 80015ce:	f3c3 030b 	ubfx	r3, r3, #0, #12
 80015d2:	b123      	cbz	r3, 80015de <HAL_I2C_Init+0x13a>
 80015d4:	f443 4340 	orr.w	r3, r3, #49152	@ 0xc000
 80015d8:	e7be      	b.n	8001558 <HAL_I2C_Init+0xb4>
 80015da:	2304      	movs	r3, #4
 80015dc:	e7bc      	b.n	8001558 <HAL_I2C_Init+0xb4>
 80015de:	2301      	movs	r3, #1
 80015e0:	e7ba      	b.n	8001558 <HAL_I2C_Init+0xb4>
 80015e2:	bf00      	nop
 80015e4:	000186a0 	.word	0x000186a0
 80015e8:	001e847f 	.word	0x001e847f
 80015ec:	003d08ff 	.word	0x003d08ff
 80015f0:	000f4240 	.word	0x000f4240

080015f4 <HAL_I2C_Mem_Write>:
{
 80015f4:	e92d 43f7 	stmdb	sp!, {r0, r1, r2, r4, r5, r6, r7, r8, r9, lr}
 80015f8:	4604      	mov	r4, r0
 80015fa:	4699      	mov	r9, r3
 80015fc:	460f      	mov	r7, r1
 80015fe:	4690      	mov	r8, r2
 8001600:	9e0c      	ldr	r6, [sp, #48]	@ 0x30
  uint32_t tickstart = HAL_GetTick();
 8001602:	f7ff fcbb 	bl	8000f7c <HAL_GetTick>
  if (hi2c->State == HAL_I2C_STATE_READY)
 8001606:	f894 303d 	ldrb.w	r3, [r4, #61]	@ 0x3d
  uint32_t tickstart = HAL_GetTick();
 800160a:	4605      	mov	r5, r0
  if (hi2c->State == HAL_I2C_STATE_READY)
 800160c:	2b20      	cmp	r3, #32
 800160e:	d003      	beq.n	8001618 <HAL_I2C_Mem_Write+0x24>
      return HAL_BUSY;
 8001610:	2002      	movs	r0, #2
}
 8001612:	b003      	add	sp, #12
 8001614:	e8bd 83f0 	ldmia.w	sp!, {r4, r5, r6, r7, r8, r9, pc}
    if (I2C_WaitOnFlagUntilTimeout(hi2c, I2C_FLAG_BUSY, SET, I2C_TIMEOUT_BUSY_FLAG, tickstart) != HAL_OK)
 8001618:	9000      	str	r0, [sp, #0]
 800161a:	2319      	movs	r3, #25
 800161c:	2201      	movs	r2, #1
 800161e:	4620      	mov	r0, r4
 8001620:	493a      	ldr	r1, [pc, #232]	@ (800170c <HAL_I2C_Mem_Write+0x118>)
 8001622:	f7ff fe0f 	bl	8001244 <I2C_WaitOnFlagUntilTimeout>
 8001626:	2800      	cmp	r0, #0
 8001628:	d1f2      	bne.n	8001610 <HAL_I2C_Mem_Write+0x1c>
    __HAL_LOCK(hi2c);
 800162a:	f894 303c 	ldrb.w	r3, [r4, #60]	@ 0x3c
 800162e:	2b01      	cmp	r3, #1
 8001630:	d0ee      	beq.n	8001610 <HAL_I2C_Mem_Write+0x1c>
 8001632:	2301      	movs	r3, #1
    if ((hi2c->Instance->CR1 & I2C_CR1_PE) != I2C_CR1_PE)
 8001634:	6820      	ldr	r0, [r4, #0]
    __HAL_LOCK(hi2c);
 8001636:	f884 303c 	strb.w	r3, [r4, #60]	@ 0x3c
    if ((hi2c->Instance->CR1 & I2C_CR1_PE) != I2C_CR1_PE)
 800163a:	6803      	ldr	r3, [r0, #0]
    if (I2C_RequestMemoryWrite(hi2c, DevAddress, MemAddress, MemAddSize, Timeout, tickstart) != HAL_OK)
 800163c:	4642      	mov	r2, r8
    if ((hi2c->Instance->CR1 & I2C_CR1_PE) != I2C_CR1_PE)
 800163e:	07d9      	lsls	r1, r3, #31
      __HAL_I2C_ENABLE(hi2c);
 8001640:	bf58      	it	pl
 8001642:	6803      	ldrpl	r3, [r0, #0]
    if (I2C_RequestMemoryWrite(hi2c, DevAddress, MemAddress, MemAddSize, Timeout, tickstart) != HAL_OK)
 8001644:	4639      	mov	r1, r7
      __HAL_I2C_ENABLE(hi2c);
 8001646:	bf5c      	itt	pl
 8001648:	f043 0301 	orrpl.w	r3, r3, #1
 800164c:	6003      	strpl	r3, [r0, #0]
    CLEAR_BIT(hi2c->Instance->CR1, I2C_CR1_POS);
 800164e:	6803      	ldr	r3, [r0, #0]
 8001650:	f423 6300 	bic.w	r3, r3, #2048	@ 0x800
 8001654:	6003      	str	r3, [r0, #0]
    hi2c->State     = HAL_I2C_STATE_BUSY_TX;
 8001656:	2321      	movs	r3, #33	@ 0x21
 8001658:	f884 303d 	strb.w	r3, [r4, #61]	@ 0x3d
    hi2c->Mode      = HAL_I2C_MODE_MEM;
 800165c:	2340      	movs	r3, #64	@ 0x40
 800165e:	f884 303e 	strb.w	r3, [r4, #62]	@ 0x3e
    hi2c->ErrorCode = HAL_I2C_ERROR_NONE;
 8001662:	2300      	movs	r3, #0
 8001664:	6423      	str	r3, [r4, #64]	@ 0x40
    hi2c->pBuffPtr    = pData;
 8001666:	9b0a      	ldr	r3, [sp, #40]	@ 0x28
    if (I2C_RequestMemoryWrite(hi2c, DevAddress, MemAddress, MemAddSize, Timeout, tickstart) != HAL_OK)
 8001668:	4620      	mov	r0, r4
    hi2c->pBuffPtr    = pData;
 800166a:	6263      	str	r3, [r4, #36]	@ 0x24
    hi2c->XferCount   = Size;
 800166c:	f8bd 302c 	ldrh.w	r3, [sp, #44]	@ 0x2c
 8001670:	8563      	strh	r3, [r4, #42]	@ 0x2a
    hi2c->XferSize    = hi2c->XferCount;
 8001672:	8d63      	ldrh	r3, [r4, #42]	@ 0x2a
 8001674:	8523      	strh	r3, [r4, #40]	@ 0x28
    hi2c->XferOptions = I2C_NO_OPTION_FRAME;
 8001676:	4b26      	ldr	r3, [pc, #152]	@ (8001710 <HAL_I2C_Mem_Write+0x11c>)
 8001678:	62e3      	str	r3, [r4, #44]	@ 0x2c
    if (I2C_RequestMemoryWrite(hi2c, DevAddress, MemAddress, MemAddSize, Timeout, tickstart) != HAL_OK)
 800167a:	464b      	mov	r3, r9
 800167c:	e9cd 6500 	strd	r6, r5, [sp]
 8001680:	f7ff fe8c 	bl	800139c <I2C_RequestMemoryWrite>
 8001684:	2800      	cmp	r0, #0
 8001686:	d02a      	beq.n	80016de <HAL_I2C_Mem_Write+0xea>
      return HAL_ERROR;
 8001688:	2001      	movs	r0, #1
 800168a:	e7c2      	b.n	8001612 <HAL_I2C_Mem_Write+0x1e>
      if (I2C_WaitOnTXEFlagUntilTimeout(hi2c, Timeout, tickstart) != HAL_OK)
 800168c:	f7ff fe5c 	bl	8001348 <I2C_WaitOnTXEFlagUntilTimeout>
 8001690:	b140      	cbz	r0, 80016a4 <HAL_I2C_Mem_Write+0xb0>
        if (hi2c->ErrorCode == HAL_I2C_ERROR_AF)
 8001692:	6c23      	ldr	r3, [r4, #64]	@ 0x40
 8001694:	2b04      	cmp	r3, #4
          SET_BIT(hi2c->Instance->CR1, I2C_CR1_STOP);
 8001696:	bf01      	itttt	eq
 8001698:	6822      	ldreq	r2, [r4, #0]
 800169a:	6813      	ldreq	r3, [r2, #0]
 800169c:	f443 7300 	orreq.w	r3, r3, #512	@ 0x200
 80016a0:	6013      	streq	r3, [r2, #0]
 80016a2:	e7f1      	b.n	8001688 <HAL_I2C_Mem_Write+0x94>
      hi2c->Instance->DR = *hi2c->pBuffPtr;
 80016a4:	6a63      	ldr	r3, [r4, #36]	@ 0x24
 80016a6:	6827      	ldr	r7, [r4, #0]
 80016a8:	461a      	mov	r2, r3
 80016aa:	f812 1b01 	ldrb.w	r1, [r2], #1
 80016ae:	6139      	str	r1, [r7, #16]
      hi2c->pBuffPtr++;
 80016b0:	6262      	str	r2, [r4, #36]	@ 0x24
      hi2c->XferCount--;
 80016b2:	8d62      	ldrh	r2, [r4, #42]	@ 0x2a
      hi2c->XferSize--;
 80016b4:	8d21      	ldrh	r1, [r4, #40]	@ 0x28
      hi2c->XferCount--;
 80016b6:	3a01      	subs	r2, #1
 80016b8:	b292      	uxth	r2, r2
 80016ba:	8562      	strh	r2, [r4, #42]	@ 0x2a
      if ((__HAL_I2C_GET_FLAG(hi2c, I2C_FLAG_BTF) == SET) && (hi2c->XferSize != 0U))
 80016bc:	697a      	ldr	r2, [r7, #20]
      hi2c->XferSize--;
 80016be:	1e48      	subs	r0, r1, #1
 80016c0:	b280      	uxth	r0, r0
      if ((__HAL_I2C_GET_FLAG(hi2c, I2C_FLAG_BTF) == SET) && (hi2c->XferSize != 0U))
 80016c2:	0752      	lsls	r2, r2, #29
      hi2c->XferSize--;
 80016c4:	8520      	strh	r0, [r4, #40]	@ 0x28
      if ((__HAL_I2C_GET_FLAG(hi2c, I2C_FLAG_BTF) == SET) && (hi2c->XferSize != 0U))
 80016c6:	d50a      	bpl.n	80016de <HAL_I2C_Mem_Write+0xea>
 80016c8:	b148      	cbz	r0, 80016de <HAL_I2C_Mem_Write+0xea>
        hi2c->Instance->DR = *hi2c->pBuffPtr;
 80016ca:	785a      	ldrb	r2, [r3, #1]
        hi2c->pBuffPtr++;
 80016cc:	3302      	adds	r3, #2
        hi2c->Instance->DR = *hi2c->pBuffPtr;
 80016ce:	613a      	str	r2, [r7, #16]
        hi2c->pBuffPtr++;
 80016d0:	6263      	str	r3, [r4, #36]	@ 0x24
        hi2c->XferCount--;
 80016d2:	8d63      	ldrh	r3, [r4, #42]	@ 0x2a
        hi2c->XferSize--;
 80016d4:	3902      	subs	r1, #2
        hi2c->XferCount--;
 80016d6:	3b01      	subs	r3, #1
 80016d8:	b29b      	uxth	r3, r3
        hi2c->XferSize--;
 80016da:	8521      	strh	r1, [r4, #40]	@ 0x28
        hi2c->XferCount--;
 80016dc:	8563      	strh	r3, [r4, #42]	@ 0x2a
    while (hi2c->XferSize > 0U)
 80016de:	8d23      	ldrh	r3, [r4, #40]	@ 0x28
      if (I2C_WaitOnTXEFlagUntilTimeout(hi2c, Timeout, tickstart) != HAL_OK)
 80016e0:	462a      	mov	r2, r5
 80016e2:	4631      	mov	r1, r6
 80016e4:	4620      	mov	r0, r4
    while (hi2c->XferSize > 0U)
 80016e6:	2b00      	cmp	r3, #0
 80016e8:	d1d0      	bne.n	800168c <HAL_I2C_Mem_Write+0x98>
    if (I2C_WaitOnBTFFlagUntilTimeout(hi2c, Timeout, tickstart) != HAL_OK)
 80016ea:	f7ff feb1 	bl	8001450 <I2C_WaitOnBTFFlagUntilTimeout>
 80016ee:	2800      	cmp	r0, #0
 80016f0:	d1cf      	bne.n	8001692 <HAL_I2C_Mem_Write+0x9e>
    SET_BIT(hi2c->Instance->CR1, I2C_CR1_STOP);
 80016f2:	6822      	ldr	r2, [r4, #0]
 80016f4:	6813      	ldr	r3, [r2, #0]
 80016f6:	f443 7300 	orr.w	r3, r3, #512	@ 0x200
 80016fa:	6013      	str	r3, [r2, #0]
    hi2c->State = HAL_I2C_STATE_READY;
 80016fc:	2320      	movs	r3, #32
    __HAL_UNLOCK(hi2c);
 80016fe:	f884 003c 	strb.w	r0, [r4, #60]	@ 0x3c
    hi2c->State = HAL_I2C_STATE_READY;
 8001702:	f884 303d 	strb.w	r3, [r4, #61]	@ 0x3d
    hi2c->Mode = HAL_I2C_MODE_NONE;
 8001706:	f884 003e 	strb.w	r0, [r4, #62]	@ 0x3e
    return HAL_OK;
 800170a:	e782      	b.n	8001612 <HAL_I2C_Mem_Write+0x1e>
 800170c:	00100002 	.word	0x00100002
 8001710:	ffff0000 	.word	0xffff0000

08001714 <HAL_RCC_OscConfig>:
  *         supported by this macro. User should request a transition to HSE Off
  *         first and then HSE On or HSE Bypass.
  * @retval HAL status
  */
HAL_StatusTypeDef HAL_RCC_OscConfig(RCC_OscInitTypeDef  *RCC_OscInitStruct)
{
 8001714:	e92d 41f3 	stmdb	sp!, {r0, r1, r4, r5, r6, r7, r8, lr}
  uint32_t tickstart;
  uint32_t pll_config;

  /* Check Null pointer */
  if (RCC_OscInitStruct == NULL)
 8001718:	4605      	mov	r5, r0
 800171a:	b338      	cbz	r0, 800176c <HAL_RCC_OscConfig+0x58>

  /* Check the parameters */
  assert_param(IS_RCC_OSCILLATORTYPE(RCC_OscInitStruct->OscillatorType));

  /*------------------------------- HSE Configuration ------------------------*/
  if (((RCC_OscInitStruct->OscillatorType) & RCC_OSCILLATORTYPE_HSE) == RCC_OSCILLATORTYPE_HSE)
 800171c:	6803      	ldr	r3, [r0, #0]
 800171e:	07db      	lsls	r3, r3, #31
 8001720:	d410      	bmi.n	8001744 <HAL_RCC_OscConfig+0x30>
        }
      }
    }
  }
  /*----------------------------- HSI Configuration --------------------------*/
  if (((RCC_OscInitStruct->OscillatorType) & RCC_OSCILLATORTYPE_HSI) == RCC_OSCILLATORTYPE_HSI)
 8001722:	682b      	ldr	r3, [r5, #0]
 8001724:	079f      	lsls	r7, r3, #30
 8001726:	d45e      	bmi.n	80017e6 <HAL_RCC_OscConfig+0xd2>
        }
      }
    }
  }
  /*------------------------------ LSI Configuration -------------------------*/
  if (((RCC_OscInitStruct->OscillatorType) & RCC_OSCILLATORTYPE_LSI) == RCC_OSCILLATORTYPE_LSI)
 8001728:	682b      	ldr	r3, [r5, #0]
 800172a:	0719      	lsls	r1, r3, #28
 800172c:	f100 8095 	bmi.w	800185a <HAL_RCC_OscConfig+0x146>
        }
      }
    }
  }
  /*------------------------------ LSE Configuration -------------------------*/
  if (((RCC_OscInitStruct->OscillatorType) & RCC_OSCILLATORTYPE_LSE) == RCC_OSCILLATORTYPE_LSE)
 8001730:	682b      	ldr	r3, [r5, #0]
 8001732:	075a      	lsls	r2, r3, #29
 8001734:	f100 80c1 	bmi.w	80018ba <HAL_RCC_OscConfig+0x1a6>

#endif /* RCC_CR_PLL2ON */
  /*-------------------------------- PLL Configuration -----------------------*/
  /* Check the parameters */
  assert_param(IS_RCC_PLL(RCC_OscInitStruct->PLL.PLLState));
  if ((RCC_OscInitStruct->PLL.PLLState) != RCC_PLL_NONE)
 8001738:	69eb      	ldr	r3, [r5, #28]
 800173a:	2b00      	cmp	r3, #0
 800173c:	f040 812c 	bne.w	8001998 <HAL_RCC_OscConfig+0x284>
        }
      }
    }
  }

  return HAL_OK;
 8001740:	2000      	movs	r0, #0
 8001742:	e029      	b.n	8001798 <HAL_RCC_OscConfig+0x84>
    if ((__HAL_RCC_GET_SYSCLK_SOURCE() == RCC_SYSCLKSOURCE_STATUS_HSE)
 8001744:	4c90      	ldr	r4, [pc, #576]	@ (8001988 <HAL_RCC_OscConfig+0x274>)
 8001746:	6863      	ldr	r3, [r4, #4]
 8001748:	f003 030c 	and.w	r3, r3, #12
 800174c:	2b04      	cmp	r3, #4
 800174e:	d007      	beq.n	8001760 <HAL_RCC_OscConfig+0x4c>
        || ((__HAL_RCC_GET_SYSCLK_SOURCE() == RCC_SYSCLKSOURCE_STATUS_PLLCLK) && (__HAL_RCC_GET_PLL_OSCSOURCE() == RCC_PLLSOURCE_HSE)))
 8001750:	6863      	ldr	r3, [r4, #4]
 8001752:	f003 030c 	and.w	r3, r3, #12
 8001756:	2b08      	cmp	r3, #8
 8001758:	d10a      	bne.n	8001770 <HAL_RCC_OscConfig+0x5c>
 800175a:	6863      	ldr	r3, [r4, #4]
 800175c:	03de      	lsls	r6, r3, #15
 800175e:	d507      	bpl.n	8001770 <HAL_RCC_OscConfig+0x5c>
      if ((__HAL_RCC_GET_FLAG(RCC_FLAG_HSERDY) != RESET) && (RCC_OscInitStruct->HSEState == RCC_HSE_OFF))
 8001760:	6823      	ldr	r3, [r4, #0]
 8001762:	039c      	lsls	r4, r3, #14
 8001764:	d5dd      	bpl.n	8001722 <HAL_RCC_OscConfig+0xe>
 8001766:	686b      	ldr	r3, [r5, #4]
 8001768:	2b00      	cmp	r3, #0
 800176a:	d1da      	bne.n	8001722 <HAL_RCC_OscConfig+0xe>
    return HAL_ERROR;
 800176c:	2001      	movs	r0, #1
 800176e:	e013      	b.n	8001798 <HAL_RCC_OscConfig+0x84>
      __HAL_RCC_HSE_CONFIG(RCC_OscInitStruct->HSEState);
 8001770:	686b      	ldr	r3, [r5, #4]
 8001772:	f5b3 3f80 	cmp.w	r3, #65536	@ 0x10000
 8001776:	d112      	bne.n	800179e <HAL_RCC_OscConfig+0x8a>
 8001778:	6823      	ldr	r3, [r4, #0]
 800177a:	f443 3380 	orr.w	r3, r3, #65536	@ 0x10000
 800177e:	6023      	str	r3, [r4, #0]
        tickstart = HAL_GetTick();
 8001780:	f7ff fbfc 	bl	8000f7c <HAL_GetTick>
 8001784:	4606      	mov	r6, r0
        while (__HAL_RCC_GET_FLAG(RCC_FLAG_HSERDY) == RESET)
 8001786:	6823      	ldr	r3, [r4, #0]
 8001788:	0398      	lsls	r0, r3, #14
 800178a:	d4ca      	bmi.n	8001722 <HAL_RCC_OscConfig+0xe>
          if ((HAL_GetTick() - tickstart) > HSE_TIMEOUT_VALUE)
 800178c:	f7ff fbf6 	bl	8000f7c <HAL_GetTick>
 8001790:	1b80      	subs	r0, r0, r6
 8001792:	2864      	cmp	r0, #100	@ 0x64
 8001794:	d9f7      	bls.n	8001786 <HAL_RCC_OscConfig+0x72>
            return HAL_TIMEOUT;
 8001796:	2003      	movs	r0, #3
}
 8001798:	b002      	add	sp, #8
 800179a:	e8bd 81f0 	ldmia.w	sp!, {r4, r5, r6, r7, r8, pc}
      __HAL_RCC_HSE_CONFIG(RCC_OscInitStruct->HSEState);
 800179e:	b99b      	cbnz	r3, 80017c8 <HAL_RCC_OscConfig+0xb4>
 80017a0:	6823      	ldr	r3, [r4, #0]
 80017a2:	f423 3380 	bic.w	r3, r3, #65536	@ 0x10000
 80017a6:	6023      	str	r3, [r4, #0]
 80017a8:	6823      	ldr	r3, [r4, #0]
 80017aa:	f423 2380 	bic.w	r3, r3, #262144	@ 0x40000
 80017ae:	6023      	str	r3, [r4, #0]
        tickstart = HAL_GetTick();
 80017b0:	f7ff fbe4 	bl	8000f7c <HAL_GetTick>
 80017b4:	4606      	mov	r6, r0
        while (__HAL_RCC_GET_FLAG(RCC_FLAG_HSERDY) != RESET)
 80017b6:	6823      	ldr	r3, [r4, #0]
 80017b8:	0399      	lsls	r1, r3, #14
 80017ba:	d5b2      	bpl.n	8001722 <HAL_RCC_OscConfig+0xe>
          if ((HAL_GetTick() - tickstart) > HSE_TIMEOUT_VALUE)
 80017bc:	f7ff fbde 	bl	8000f7c <HAL_GetTick>
 80017c0:	1b80      	subs	r0, r0, r6
 80017c2:	2864      	cmp	r0, #100	@ 0x64
 80017c4:	d9f7      	bls.n	80017b6 <HAL_RCC_OscConfig+0xa2>
 80017c6:	e7e6      	b.n	8001796 <HAL_RCC_OscConfig+0x82>
      __HAL_RCC_HSE_CONFIG(RCC_OscInitStruct->HSEState);
 80017c8:	f5b3 2fa0 	cmp.w	r3, #327680	@ 0x50000
 80017cc:	6823      	ldr	r3, [r4, #0]
 80017ce:	d103      	bne.n	80017d8 <HAL_RCC_OscConfig+0xc4>
 80017d0:	f443 2380 	orr.w	r3, r3, #262144	@ 0x40000
 80017d4:	6023      	str	r3, [r4, #0]
 80017d6:	e7cf      	b.n	8001778 <HAL_RCC_OscConfig+0x64>
 80017d8:	f423 3380 	bic.w	r3, r3, #65536	@ 0x10000
 80017dc:	6023      	str	r3, [r4, #0]
 80017de:	6823      	ldr	r3, [r4, #0]
 80017e0:	f423 2380 	bic.w	r3, r3, #262144	@ 0x40000
 80017e4:	e7cb      	b.n	800177e <HAL_RCC_OscConfig+0x6a>
    if ((__HAL_RCC_GET_SYSCLK_SOURCE() == RCC_SYSCLKSOURCE_STATUS_HSI)
 80017e6:	4c68      	ldr	r4, [pc, #416]	@ (8001988 <HAL_RCC_OscConfig+0x274>)
 80017e8:	6863      	ldr	r3, [r4, #4]
 80017ea:	f013 0f0c 	tst.w	r3, #12
 80017ee:	d007      	beq.n	8001800 <HAL_RCC_OscConfig+0xec>
        || ((__HAL_RCC_GET_SYSCLK_SOURCE() == RCC_SYSCLKSOURCE_STATUS_PLLCLK) && (__HAL_RCC_GET_PLL_OSCSOURCE() == RCC_PLLSOURCE_HSI_DIV2)))
 80017f0:	6863      	ldr	r3, [r4, #4]
 80017f2:	f003 030c 	and.w	r3, r3, #12
 80017f6:	2b08      	cmp	r3, #8
 80017f8:	d110      	bne.n	800181c <HAL_RCC_OscConfig+0x108>
 80017fa:	6863      	ldr	r3, [r4, #4]
 80017fc:	03da      	lsls	r2, r3, #15
 80017fe:	d40d      	bmi.n	800181c <HAL_RCC_OscConfig+0x108>
      if ((__HAL_RCC_GET_FLAG(RCC_FLAG_HSIRDY) != RESET) && (RCC_OscInitStruct->HSIState != RCC_HSI_ON))
 8001800:	6823      	ldr	r3, [r4, #0]
 8001802:	079b      	lsls	r3, r3, #30
 8001804:	d502      	bpl.n	800180c <HAL_RCC_OscConfig+0xf8>
 8001806:	692b      	ldr	r3, [r5, #16]
 8001808:	2b01      	cmp	r3, #1
 800180a:	d1af      	bne.n	800176c <HAL_RCC_OscConfig+0x58>
        __HAL_RCC_HSI_CALIBRATIONVALUE_ADJUST(RCC_OscInitStruct->HSICalibrationValue);
 800180c:	6823      	ldr	r3, [r4, #0]
 800180e:	696a      	ldr	r2, [r5, #20]
 8001810:	f023 03f8 	bic.w	r3, r3, #248	@ 0xf8
 8001814:	ea43 03c2 	orr.w	r3, r3, r2, lsl #3
 8001818:	6023      	str	r3, [r4, #0]
 800181a:	e785      	b.n	8001728 <HAL_RCC_OscConfig+0x14>
      if (RCC_OscInitStruct->HSIState != RCC_HSI_OFF)
 800181c:	692a      	ldr	r2, [r5, #16]
 800181e:	4b5b      	ldr	r3, [pc, #364]	@ (800198c <HAL_RCC_OscConfig+0x278>)
 8001820:	b16a      	cbz	r2, 800183e <HAL_RCC_OscConfig+0x12a>
        __HAL_RCC_HSI_ENABLE();
 8001822:	2201      	movs	r2, #1
 8001824:	601a      	str	r2, [r3, #0]
        tickstart = HAL_GetTick();
 8001826:	f7ff fba9 	bl	8000f7c <HAL_GetTick>
 800182a:	4606      	mov	r6, r0
        while (__HAL_RCC_GET_FLAG(RCC_FLAG_HSIRDY) == RESET)
 800182c:	6823      	ldr	r3, [r4, #0]
 800182e:	079f      	lsls	r7, r3, #30
 8001830:	d4ec      	bmi.n	800180c <HAL_RCC_OscConfig+0xf8>
          if ((HAL_GetTick() - tickstart) > HSI_TIMEOUT_VALUE)
 8001832:	f7ff fba3 	bl	8000f7c <HAL_GetTick>
 8001836:	1b80      	subs	r0, r0, r6
 8001838:	2802      	cmp	r0, #2
 800183a:	d9f7      	bls.n	800182c <HAL_RCC_OscConfig+0x118>
 800183c:	e7ab      	b.n	8001796 <HAL_RCC_OscConfig+0x82>
        __HAL_RCC_HSI_DISABLE();
 800183e:	601a      	str	r2, [r3, #0]
        tickstart = HAL_GetTick();
 8001840:	f7ff fb9c 	bl	8000f7c <HAL_GetTick>
 8001844:	4606      	mov	r6, r0
        while (__HAL_RCC_GET_FLAG(RCC_FLAG_HSIRDY) != RESET)
 8001846:	6823      	ldr	r3, [r4, #0]
 8001848:	0798      	lsls	r0, r3, #30
 800184a:	f57f af6d 	bpl.w	8001728 <HAL_RCC_OscConfig+0x14>
          if ((HAL_GetTick() - tickstart) > HSI_TIMEOUT_VALUE)
 800184e:	f7ff fb95 	bl	8000f7c <HAL_GetTick>
 8001852:	1b80      	subs	r0, r0, r6
 8001854:	2802      	cmp	r0, #2
 8001856:	d9f6      	bls.n	8001846 <HAL_RCC_OscConfig+0x132>
 8001858:	e79d      	b.n	8001796 <HAL_RCC_OscConfig+0x82>
    if (RCC_OscInitStruct->LSIState != RCC_LSI_OFF)
 800185a:	69aa      	ldr	r2, [r5, #24]
 800185c:	4e4a      	ldr	r6, [pc, #296]	@ (8001988 <HAL_RCC_OscConfig+0x274>)
 800185e:	4b4b      	ldr	r3, [pc, #300]	@ (800198c <HAL_RCC_OscConfig+0x278>)
 8001860:	b1e2      	cbz	r2, 800189c <HAL_RCC_OscConfig+0x188>
      __HAL_RCC_LSI_ENABLE();
 8001862:	2201      	movs	r2, #1
 8001864:	f8c3 2480 	str.w	r2, [r3, #1152]	@ 0x480
      tickstart = HAL_GetTick();
 8001868:	f7ff fb88 	bl	8000f7c <HAL_GetTick>
 800186c:	4604      	mov	r4, r0
      while (__HAL_RCC_GET_FLAG(RCC_FLAG_LSIRDY) == RESET)
 800186e:	6a73      	ldr	r3, [r6, #36]	@ 0x24
 8001870:	079b      	lsls	r3, r3, #30
 8001872:	d50d      	bpl.n	8001890 <HAL_RCC_OscConfig+0x17c>
  * @param  mdelay: specifies the delay time length, in milliseconds.
  * @retval None
  */
static void RCC_Delay(uint32_t mdelay)
{
  __IO uint32_t Delay = mdelay * (SystemCoreClock / 8U / 1000U);
 8001874:	f44f 52fa 	mov.w	r2, #8000	@ 0x1f40
 8001878:	4b45      	ldr	r3, [pc, #276]	@ (8001990 <HAL_RCC_OscConfig+0x27c>)
 800187a:	681b      	ldr	r3, [r3, #0]
 800187c:	fbb3 f3f2 	udiv	r3, r3, r2
 8001880:	9301      	str	r3, [sp, #4]
  do
  {
    __NOP();
 8001882:	bf00      	nop
  }
  while (Delay --);
 8001884:	9b01      	ldr	r3, [sp, #4]
 8001886:	1e5a      	subs	r2, r3, #1
 8001888:	9201      	str	r2, [sp, #4]
 800188a:	2b00      	cmp	r3, #0
 800188c:	d1f9      	bne.n	8001882 <HAL_RCC_OscConfig+0x16e>
 800188e:	e74f      	b.n	8001730 <HAL_RCC_OscConfig+0x1c>
        if ((HAL_GetTick() - tickstart) > LSI_TIMEOUT_VALUE)
 8001890:	f7ff fb74 	bl	8000f7c <HAL_GetTick>
 8001894:	1b00      	subs	r0, r0, r4
 8001896:	2802      	cmp	r0, #2
 8001898:	d9e9      	bls.n	800186e <HAL_RCC_OscConfig+0x15a>
 800189a:	e77c      	b.n	8001796 <HAL_RCC_OscConfig+0x82>
      __HAL_RCC_LSI_DISABLE();
 800189c:	f8c3 2480 	str.w	r2, [r3, #1152]	@ 0x480
      tickstart = HAL_GetTick();
 80018a0:	f7ff fb6c 	bl	8000f7c <HAL_GetTick>
 80018a4:	4604      	mov	r4, r0
      while (__HAL_RCC_GET_FLAG(RCC_FLAG_LSIRDY) != RESET)
 80018a6:	6a73      	ldr	r3, [r6, #36]	@ 0x24
 80018a8:	079f      	lsls	r7, r3, #30
 80018aa:	f57f af41 	bpl.w	8001730 <HAL_RCC_OscConfig+0x1c>
        if ((HAL_GetTick() - tickstart) > LSI_TIMEOUT_VALUE)
 80018ae:	f7ff fb65 	bl	8000f7c <HAL_GetTick>
 80018b2:	1b00      	subs	r0, r0, r4
 80018b4:	2802      	cmp	r0, #2
 80018b6:	d9f6      	bls.n	80018a6 <HAL_RCC_OscConfig+0x192>
 80018b8:	e76d      	b.n	8001796 <HAL_RCC_OscConfig+0x82>
    if (__HAL_RCC_PWR_IS_CLK_DISABLED())
 80018ba:	4c33      	ldr	r4, [pc, #204]	@ (8001988 <HAL_RCC_OscConfig+0x274>)
 80018bc:	69e3      	ldr	r3, [r4, #28]
 80018be:	00d8      	lsls	r0, r3, #3
 80018c0:	d424      	bmi.n	800190c <HAL_RCC_OscConfig+0x1f8>
      pwrclkchanged = SET;
 80018c2:	2701      	movs	r7, #1
      __HAL_RCC_PWR_CLK_ENABLE();
 80018c4:	69e3      	ldr	r3, [r4, #28]
 80018c6:	f043 5380 	orr.w	r3, r3, #268435456	@ 0x10000000
 80018ca:	61e3      	str	r3, [r4, #28]
 80018cc:	69e3      	ldr	r3, [r4, #28]
 80018ce:	f003 5380 	and.w	r3, r3, #268435456	@ 0x10000000
 80018d2:	9300      	str	r3, [sp, #0]
 80018d4:	9b00      	ldr	r3, [sp, #0]
    if (HAL_IS_BIT_CLR(PWR->CR, PWR_CR_DBP))
 80018d6:	4e2f      	ldr	r6, [pc, #188]	@ (8001994 <HAL_RCC_OscConfig+0x280>)
 80018d8:	6833      	ldr	r3, [r6, #0]
 80018da:	05d9      	lsls	r1, r3, #23
 80018dc:	d518      	bpl.n	8001910 <HAL_RCC_OscConfig+0x1fc>
    __HAL_RCC_LSE_CONFIG(RCC_OscInitStruct->LSEState);
 80018de:	68eb      	ldr	r3, [r5, #12]
 80018e0:	2b01      	cmp	r3, #1
 80018e2:	d126      	bne.n	8001932 <HAL_RCC_OscConfig+0x21e>
 80018e4:	6a23      	ldr	r3, [r4, #32]
 80018e6:	f043 0301 	orr.w	r3, r3, #1
 80018ea:	6223      	str	r3, [r4, #32]
      tickstart = HAL_GetTick();
 80018ec:	f7ff fb46 	bl	8000f7c <HAL_GetTick>
        if ((HAL_GetTick() - tickstart) > RCC_LSE_TIMEOUT_VALUE)
 80018f0:	f241 3888 	movw	r8, #5000	@ 0x1388
      tickstart = HAL_GetTick();
 80018f4:	4606      	mov	r6, r0
      while (__HAL_RCC_GET_FLAG(RCC_FLAG_LSERDY) == RESET)
 80018f6:	6a23      	ldr	r3, [r4, #32]
 80018f8:	079b      	lsls	r3, r3, #30
 80018fa:	d53f      	bpl.n	800197c <HAL_RCC_OscConfig+0x268>
    if (pwrclkchanged == SET)
 80018fc:	2f00      	cmp	r7, #0
 80018fe:	f43f af1b 	beq.w	8001738 <HAL_RCC_OscConfig+0x24>
      __HAL_RCC_PWR_CLK_DISABLE();
 8001902:	69e3      	ldr	r3, [r4, #28]
 8001904:	f023 5380 	bic.w	r3, r3, #268435456	@ 0x10000000
 8001908:	61e3      	str	r3, [r4, #28]
 800190a:	e715      	b.n	8001738 <HAL_RCC_OscConfig+0x24>
    FlagStatus       pwrclkchanged = RESET;
 800190c:	2700      	movs	r7, #0
 800190e:	e7e2      	b.n	80018d6 <HAL_RCC_OscConfig+0x1c2>
      SET_BIT(PWR->CR, PWR_CR_DBP);
 8001910:	6833      	ldr	r3, [r6, #0]
 8001912:	f443 7380 	orr.w	r3, r3, #256	@ 0x100
 8001916:	6033      	str	r3, [r6, #0]
      tickstart = HAL_GetTick();
 8001918:	f7ff fb30 	bl	8000f7c <HAL_GetTick>
 800191c:	4680      	mov	r8, r0
      while (HAL_IS_BIT_CLR(PWR->CR, PWR_CR_DBP))
 800191e:	6833      	ldr	r3, [r6, #0]
 8001920:	05da      	lsls	r2, r3, #23
 8001922:	d4dc      	bmi.n	80018de <HAL_RCC_OscConfig+0x1ca>
        if ((HAL_GetTick() - tickstart) > RCC_DBP_TIMEOUT_VALUE)
 8001924:	f7ff fb2a 	bl	8000f7c <HAL_GetTick>
 8001928:	eba0 0008 	sub.w	r0, r0, r8
 800192c:	2864      	cmp	r0, #100	@ 0x64
 800192e:	d9f6      	bls.n	800191e <HAL_RCC_OscConfig+0x20a>
 8001930:	e731      	b.n	8001796 <HAL_RCC_OscConfig+0x82>
    __HAL_RCC_LSE_CONFIG(RCC_OscInitStruct->LSEState);
 8001932:	b9ab      	cbnz	r3, 8001960 <HAL_RCC_OscConfig+0x24c>
 8001934:	6a23      	ldr	r3, [r4, #32]
        if ((HAL_GetTick() - tickstart) > RCC_LSE_TIMEOUT_VALUE)
 8001936:	f241 3888 	movw	r8, #5000	@ 0x1388
    __HAL_RCC_LSE_CONFIG(RCC_OscInitStruct->LSEState);
 800193a:	f023 0301 	bic.w	r3, r3, #1
 800193e:	6223      	str	r3, [r4, #32]
 8001940:	6a23      	ldr	r3, [r4, #32]
 8001942:	f023 0304 	bic.w	r3, r3, #4
 8001946:	6223      	str	r3, [r4, #32]
      tickstart = HAL_GetTick();
 8001948:	f7ff fb18 	bl	8000f7c <HAL_GetTick>
 800194c:	4606      	mov	r6, r0
      while (__HAL_RCC_GET_FLAG(RCC_FLAG_LSERDY) != RESET)
 800194e:	6a23      	ldr	r3, [r4, #32]
 8001950:	0798      	lsls	r0, r3, #30
 8001952:	d5d3      	bpl.n	80018fc <HAL_RCC_OscConfig+0x1e8>
        if ((HAL_GetTick() - tickstart) > RCC_LSE_TIMEOUT_VALUE)
 8001954:	f7ff fb12 	bl	8000f7c <HAL_GetTick>
 8001958:	1b80      	subs	r0, r0, r6
 800195a:	4540      	cmp	r0, r8
 800195c:	d9f7      	bls.n	800194e <HAL_RCC_OscConfig+0x23a>
 800195e:	e71a      	b.n	8001796 <HAL_RCC_OscConfig+0x82>
    __HAL_RCC_LSE_CONFIG(RCC_OscInitStruct->LSEState);
 8001960:	2b05      	cmp	r3, #5
 8001962:	6a23      	ldr	r3, [r4, #32]
 8001964:	d103      	bne.n	800196e <HAL_RCC_OscConfig+0x25a>
 8001966:	f043 0304 	orr.w	r3, r3, #4
 800196a:	6223      	str	r3, [r4, #32]
 800196c:	e7ba      	b.n	80018e4 <HAL_RCC_OscConfig+0x1d0>
 800196e:	f023 0301 	bic.w	r3, r3, #1
 8001972:	6223      	str	r3, [r4, #32]
 8001974:	6a23      	ldr	r3, [r4, #32]
 8001976:	f023 0304 	bic.w	r3, r3, #4
 800197a:	e7b6      	b.n	80018ea <HAL_RCC_OscConfig+0x1d6>
        if ((HAL_GetTick() - tickstart) > RCC_LSE_TIMEOUT_VALUE)
 800197c:	f7ff fafe 	bl	8000f7c <HAL_GetTick>
 8001980:	1b80      	subs	r0, r0, r6
 8001982:	4540      	cmp	r0, r8
 8001984:	d9b7      	bls.n	80018f6 <HAL_RCC_OscConfig+0x1e2>
 8001986:	e706      	b.n	8001796 <HAL_RCC_OscConfig+0x82>
 8001988:	40021000 	.word	0x40021000
 800198c:	42420000 	.word	0x42420000
 8001990:	20000008 	.word	0x20000008
 8001994:	40007000 	.word	0x40007000
    if (__HAL_RCC_GET_SYSCLK_SOURCE() != RCC_SYSCLKSOURCE_STATUS_PLLCLK)
 8001998:	4c2a      	ldr	r4, [pc, #168]	@ (8001a44 <HAL_RCC_OscConfig+0x330>)
 800199a:	6862      	ldr	r2, [r4, #4]
 800199c:	f002 020c 	and.w	r2, r2, #12
 80019a0:	2a08      	cmp	r2, #8
 80019a2:	d03e      	beq.n	8001a22 <HAL_RCC_OscConfig+0x30e>
      if ((RCC_OscInitStruct->PLL.PLLState) == RCC_PLL_ON)
 80019a4:	2200      	movs	r2, #0
 80019a6:	2b02      	cmp	r3, #2
 80019a8:	4b27      	ldr	r3, [pc, #156]	@ (8001a48 <HAL_RCC_OscConfig+0x334>)
        __HAL_RCC_PLL_DISABLE();
 80019aa:	661a      	str	r2, [r3, #96]	@ 0x60
      if ((RCC_OscInitStruct->PLL.PLLState) == RCC_PLL_ON)
 80019ac:	d12c      	bne.n	8001a08 <HAL_RCC_OscConfig+0x2f4>
        tickstart = HAL_GetTick();
 80019ae:	f7ff fae5 	bl	8000f7c <HAL_GetTick>
 80019b2:	4606      	mov	r6, r0
        while (__HAL_RCC_GET_FLAG(RCC_FLAG_PLLRDY)  != RESET)
 80019b4:	6823      	ldr	r3, [r4, #0]
 80019b6:	0199      	lsls	r1, r3, #6
 80019b8:	d420      	bmi.n	80019fc <HAL_RCC_OscConfig+0x2e8>
        if (RCC_OscInitStruct->PLL.PLLSource == RCC_PLLSOURCE_HSE)
 80019ba:	6a2b      	ldr	r3, [r5, #32]
 80019bc:	f5b3 3f80 	cmp.w	r3, #65536	@ 0x10000
 80019c0:	d105      	bne.n	80019ce <HAL_RCC_OscConfig+0x2ba>
          __HAL_RCC_HSE_PREDIV_CONFIG(RCC_OscInitStruct->HSEPredivValue);
 80019c2:	6862      	ldr	r2, [r4, #4]
 80019c4:	68a9      	ldr	r1, [r5, #8]
 80019c6:	f422 3200 	bic.w	r2, r2, #131072	@ 0x20000
 80019ca:	430a      	orrs	r2, r1
 80019cc:	6062      	str	r2, [r4, #4]
        __HAL_RCC_PLL_CONFIG(RCC_OscInitStruct->PLL.PLLSource,
 80019ce:	6a69      	ldr	r1, [r5, #36]	@ 0x24
 80019d0:	6862      	ldr	r2, [r4, #4]
 80019d2:	430b      	orrs	r3, r1
 80019d4:	f422 1274 	bic.w	r2, r2, #3997696	@ 0x3d0000
 80019d8:	4313      	orrs	r3, r2
        __HAL_RCC_PLL_ENABLE();
 80019da:	2201      	movs	r2, #1
        __HAL_RCC_PLL_CONFIG(RCC_OscInitStruct->PLL.PLLSource,
 80019dc:	6063      	str	r3, [r4, #4]
        __HAL_RCC_PLL_ENABLE();
 80019de:	4b1a      	ldr	r3, [pc, #104]	@ (8001a48 <HAL_RCC_OscConfig+0x334>)
 80019e0:	661a      	str	r2, [r3, #96]	@ 0x60
        tickstart = HAL_GetTick();
 80019e2:	f7ff facb 	bl	8000f7c <HAL_GetTick>
 80019e6:	4605      	mov	r5, r0
        while (__HAL_RCC_GET_FLAG(RCC_FLAG_PLLRDY)  == RESET)
 80019e8:	6823      	ldr	r3, [r4, #0]
 80019ea:	019a      	lsls	r2, r3, #6
 80019ec:	f53f aea8 	bmi.w	8001740 <HAL_RCC_OscConfig+0x2c>
          if ((HAL_GetTick() - tickstart) > PLL_TIMEOUT_VALUE)
 80019f0:	f7ff fac4 	bl	8000f7c <HAL_GetTick>
 80019f4:	1b40      	subs	r0, r0, r5
 80019f6:	2802      	cmp	r0, #2
 80019f8:	d9f6      	bls.n	80019e8 <HAL_RCC_OscConfig+0x2d4>
 80019fa:	e6cc      	b.n	8001796 <HAL_RCC_OscConfig+0x82>
          if ((HAL_GetTick() - tickstart) > PLL_TIMEOUT_VALUE)
 80019fc:	f7ff fabe 	bl	8000f7c <HAL_GetTick>
 8001a00:	1b80      	subs	r0, r0, r6
 8001a02:	2802      	cmp	r0, #2
 8001a04:	d9d6      	bls.n	80019b4 <HAL_RCC_OscConfig+0x2a0>
 8001a06:	e6c6      	b.n	8001796 <HAL_RCC_OscConfig+0x82>
        tickstart = HAL_GetTick();
 8001a08:	f7ff fab8 	bl	8000f7c <HAL_GetTick>
 8001a0c:	4605      	mov	r5, r0
        while (__HAL_RCC_GET_FLAG(RCC_FLAG_PLLRDY)  != RESET)
 8001a0e:	6823      	ldr	r3, [r4, #0]
 8001a10:	019b      	lsls	r3, r3, #6
 8001a12:	f57f ae95 	bpl.w	8001740 <HAL_RCC_OscConfig+0x2c>
          if ((HAL_GetTick() - tickstart) > PLL_TIMEOUT_VALUE)
 8001a16:	f7ff fab1 	bl	8000f7c <HAL_GetTick>
 8001a1a:	1b40      	subs	r0, r0, r5
 8001a1c:	2802      	cmp	r0, #2
 8001a1e:	d9f6      	bls.n	8001a0e <HAL_RCC_OscConfig+0x2fa>
 8001a20:	e6b9      	b.n	8001796 <HAL_RCC_OscConfig+0x82>
      if ((RCC_OscInitStruct->PLL.PLLState) == RCC_PLL_OFF)
 8001a22:	2b01      	cmp	r3, #1
 8001a24:	f43f aea2 	beq.w	800176c <HAL_RCC_OscConfig+0x58>
        pll_config = RCC->CFGR;
 8001a28:	6860      	ldr	r0, [r4, #4]
        if ((READ_BIT(pll_config, RCC_CFGR_PLLSRC) != RCC_OscInitStruct->PLL.PLLSource) ||
 8001a2a:	6a2b      	ldr	r3, [r5, #32]
 8001a2c:	f400 3280 	and.w	r2, r0, #65536	@ 0x10000
 8001a30:	429a      	cmp	r2, r3
 8001a32:	f47f ae9b 	bne.w	800176c <HAL_RCC_OscConfig+0x58>
 8001a36:	6a6b      	ldr	r3, [r5, #36]	@ 0x24
            (READ_BIT(pll_config, RCC_CFGR_PLLMULL) != RCC_OscInitStruct->PLL.PLLMUL))
 8001a38:	f400 1070 	and.w	r0, r0, #3932160	@ 0x3c0000
        if ((READ_BIT(pll_config, RCC_CFGR_PLLSRC) != RCC_OscInitStruct->PLL.PLLSource) ||
 8001a3c:	1ac0      	subs	r0, r0, r3
 8001a3e:	bf18      	it	ne
 8001a40:	2001      	movne	r0, #1
 8001a42:	e6a9      	b.n	8001798 <HAL_RCC_OscConfig+0x84>
 8001a44:	40021000 	.word	0x40021000
 8001a48:	42420000 	.word	0x42420000

08001a4c <HAL_RCC_GetSysClockFreq>:
  tmpreg = RCC->CFGR;
 8001a4c:	4a0d      	ldr	r2, [pc, #52]	@ (8001a84 <HAL_RCC_GetSysClockFreq+0x38>)
 8001a4e:	6853      	ldr	r3, [r2, #4]
  switch (tmpreg & RCC_CFGR_SWS)
 8001a50:	f003 010c 	and.w	r1, r3, #12
 8001a54:	2908      	cmp	r1, #8
 8001a56:	d112      	bne.n	8001a7e <HAL_RCC_GetSysClockFreq+0x32>
      pllmul = aPLLMULFactorTable[(uint32_t)(tmpreg & RCC_CFGR_PLLMULL) >> RCC_CFGR_PLLMULL_Pos];
 8001a58:	480b      	ldr	r0, [pc, #44]	@ (8001a88 <HAL_RCC_GetSysClockFreq+0x3c>)
 8001a5a:	f3c3 4183 	ubfx	r1, r3, #18, #4
      if ((tmpreg & RCC_CFGR_PLLSRC) != RCC_PLLSOURCE_HSI_DIV2)
 8001a5e:	03db      	lsls	r3, r3, #15
      pllmul = aPLLMULFactorTable[(uint32_t)(tmpreg & RCC_CFGR_PLLMULL) >> RCC_CFGR_PLLMULL_Pos];
 8001a60:	5c40      	ldrb	r0, [r0, r1]
      if ((tmpreg & RCC_CFGR_PLLSRC) != RCC_PLLSOURCE_HSI_DIV2)
 8001a62:	d509      	bpl.n	8001a78 <HAL_RCC_GetSysClockFreq+0x2c>
        prediv = aPredivFactorTable[(uint32_t)(RCC->CFGR & RCC_CFGR_PLLXTPRE) >> RCC_CFGR_PLLXTPRE_Pos];
 8001a64:	6853      	ldr	r3, [r2, #4]
        pllclk = (uint32_t)((HSE_VALUE  * pllmul) / prediv);
 8001a66:	4a09      	ldr	r2, [pc, #36]	@ (8001a8c <HAL_RCC_GetSysClockFreq+0x40>)
        prediv = aPredivFactorTable[(uint32_t)(RCC->CFGR & RCC_CFGR_PLLXTPRE) >> RCC_CFGR_PLLXTPRE_Pos];
 8001a68:	f3c3 4340 	ubfx	r3, r3, #17, #1
        pllclk = (uint32_t)((HSE_VALUE  * pllmul) / prediv);
 8001a6c:	4350      	muls	r0, r2
        prediv = aPredivFactorTable[(uint32_t)(RCC->CFGR & RCC_CFGR_PLLXTPRE) >> RCC_CFGR_PLLXTPRE_Pos];
 8001a6e:	4a08      	ldr	r2, [pc, #32]	@ (8001a90 <HAL_RCC_GetSysClockFreq+0x44>)
 8001a70:	5cd3      	ldrb	r3, [r2, r3]
        pllclk = (uint32_t)((HSE_VALUE  * pllmul) / prediv);
 8001a72:	fbb0 f0f3 	udiv	r0, r0, r3
 8001a76:	4770      	bx	lr
        pllclk = (uint32_t)((HSI_VALUE >> 1) * pllmul);
 8001a78:	4b06      	ldr	r3, [pc, #24]	@ (8001a94 <HAL_RCC_GetSysClockFreq+0x48>)
 8001a7a:	4358      	muls	r0, r3
 8001a7c:	4770      	bx	lr
      sysclockfreq = HSE_VALUE;
 8001a7e:	4803      	ldr	r0, [pc, #12]	@ (8001a8c <HAL_RCC_GetSysClockFreq+0x40>)
}
 8001a80:	4770      	bx	lr
 8001a82:	bf00      	nop
 8001a84:	40021000 	.word	0x40021000
 8001a88:	08005a4a 	.word	0x08005a4a
 8001a8c:	007a1200 	.word	0x007a1200
 8001a90:	08005a48 	.word	0x08005a48
 8001a94:	003d0900 	.word	0x003d0900

08001a98 <HAL_RCC_ClockConfig>:
{
 8001a98:	e92d 41f0 	stmdb	sp!, {r4, r5, r6, r7, r8, lr}
 8001a9c:	460d      	mov	r5, r1
  if (RCC_ClkInitStruct == NULL)
 8001a9e:	4604      	mov	r4, r0
 8001aa0:	b910      	cbnz	r0, 8001aa8 <HAL_RCC_ClockConfig+0x10>
    return HAL_ERROR;
 8001aa2:	2001      	movs	r0, #1
}
 8001aa4:	e8bd 81f0 	ldmia.w	sp!, {r4, r5, r6, r7, r8, pc}
  if (FLatency > __HAL_FLASH_GET_LATENCY())
 8001aa8:	4a44      	ldr	r2, [pc, #272]	@ (8001bbc <HAL_RCC_ClockConfig+0x124>)
 8001aaa:	6813      	ldr	r3, [r2, #0]
 8001aac:	f003 0307 	and.w	r3, r3, #7
 8001ab0:	428b      	cmp	r3, r1
 8001ab2:	d328      	bcc.n	8001b06 <HAL_RCC_ClockConfig+0x6e>
if (((RCC_ClkInitStruct->ClockType) & RCC_CLOCKTYPE_HCLK) == RCC_CLOCKTYPE_HCLK)
 8001ab4:	6821      	ldr	r1, [r4, #0]
 8001ab6:	078e      	lsls	r6, r1, #30
 8001ab8:	d430      	bmi.n	8001b1c <HAL_RCC_ClockConfig+0x84>
  if (((RCC_ClkInitStruct->ClockType) & RCC_CLOCKTYPE_SYSCLK) == RCC_CLOCKTYPE_SYSCLK)
 8001aba:	07ca      	lsls	r2, r1, #31
 8001abc:	d443      	bmi.n	8001b46 <HAL_RCC_ClockConfig+0xae>
  if (FLatency < __HAL_FLASH_GET_LATENCY())
 8001abe:	4a3f      	ldr	r2, [pc, #252]	@ (8001bbc <HAL_RCC_ClockConfig+0x124>)
 8001ac0:	6813      	ldr	r3, [r2, #0]
 8001ac2:	f003 0307 	and.w	r3, r3, #7
 8001ac6:	42ab      	cmp	r3, r5
 8001ac8:	d865      	bhi.n	8001b96 <HAL_RCC_ClockConfig+0xfe>
if (((RCC_ClkInitStruct->ClockType) & RCC_CLOCKTYPE_PCLK1) == RCC_CLOCKTYPE_PCLK1)
 8001aca:	6822      	ldr	r2, [r4, #0]
 8001acc:	4d3c      	ldr	r5, [pc, #240]	@ (8001bc0 <HAL_RCC_ClockConfig+0x128>)
 8001ace:	f012 0f04 	tst.w	r2, #4
 8001ad2:	d16c      	bne.n	8001bae <HAL_RCC_ClockConfig+0x116>
  if (((RCC_ClkInitStruct->ClockType) & RCC_CLOCKTYPE_PCLK2) == RCC_CLOCKTYPE_PCLK2)
 8001ad4:	0713      	lsls	r3, r2, #28
 8001ad6:	d506      	bpl.n	8001ae6 <HAL_RCC_ClockConfig+0x4e>
    MODIFY_REG(RCC->CFGR, RCC_CFGR_PPRE2, ((RCC_ClkInitStruct->APB2CLKDivider) << 3));
 8001ad8:	686b      	ldr	r3, [r5, #4]
 8001ada:	6922      	ldr	r2, [r4, #16]
 8001adc:	f423 5360 	bic.w	r3, r3, #14336	@ 0x3800
 8001ae0:	ea43 03c2 	orr.w	r3, r3, r2, lsl #3
 8001ae4:	606b      	str	r3, [r5, #4]
  SystemCoreClock = HAL_RCC_GetSysClockFreq() >> AHBPrescTable[(RCC->CFGR & RCC_CFGR_HPRE) >> RCC_CFGR_HPRE_Pos];
 8001ae6:	f7ff ffb1 	bl	8001a4c <HAL_RCC_GetSysClockFreq>
 8001aea:	686b      	ldr	r3, [r5, #4]
 8001aec:	4a35      	ldr	r2, [pc, #212]	@ (8001bc4 <HAL_RCC_ClockConfig+0x12c>)
 8001aee:	f3c3 1303 	ubfx	r3, r3, #4, #4
 8001af2:	5cd3      	ldrb	r3, [r2, r3]
 8001af4:	40d8      	lsrs	r0, r3
 8001af6:	4b34      	ldr	r3, [pc, #208]	@ (8001bc8 <HAL_RCC_ClockConfig+0x130>)
 8001af8:	6018      	str	r0, [r3, #0]
  HAL_InitTick(uwTickPrio);
 8001afa:	4b34      	ldr	r3, [pc, #208]	@ (8001bcc <HAL_RCC_ClockConfig+0x134>)
 8001afc:	6818      	ldr	r0, [r3, #0]
 8001afe:	f7ff f9fb 	bl	8000ef8 <HAL_InitTick>
  return HAL_OK;
 8001b02:	2000      	movs	r0, #0
 8001b04:	e7ce      	b.n	8001aa4 <HAL_RCC_ClockConfig+0xc>
    __HAL_FLASH_SET_LATENCY(FLatency);
 8001b06:	6813      	ldr	r3, [r2, #0]
 8001b08:	f023 0307 	bic.w	r3, r3, #7
 8001b0c:	430b      	orrs	r3, r1
 8001b0e:	6013      	str	r3, [r2, #0]
    if (__HAL_FLASH_GET_LATENCY() != FLatency)
 8001b10:	6813      	ldr	r3, [r2, #0]
 8001b12:	f003 0307 	and.w	r3, r3, #7
 8001b16:	428b      	cmp	r3, r1
 8001b18:	d1c3      	bne.n	8001aa2 <HAL_RCC_ClockConfig+0xa>
 8001b1a:	e7cb      	b.n	8001ab4 <HAL_RCC_ClockConfig+0x1c>
    if (((RCC_ClkInitStruct->ClockType) & RCC_CLOCKTYPE_PCLK1) == RCC_CLOCKTYPE_PCLK1)
 8001b1c:	4b28      	ldr	r3, [pc, #160]	@ (8001bc0 <HAL_RCC_ClockConfig+0x128>)
 8001b1e:	f011 0f04 	tst.w	r1, #4
      MODIFY_REG(RCC->CFGR, RCC_CFGR_PPRE1, RCC_HCLK_DIV16);
 8001b22:	bf1e      	ittt	ne
 8001b24:	685a      	ldrne	r2, [r3, #4]
 8001b26:	f442 62e0 	orrne.w	r2, r2, #1792	@ 0x700
 8001b2a:	605a      	strne	r2, [r3, #4]
    if (((RCC_ClkInitStruct->ClockType) & RCC_CLOCKTYPE_PCLK2) == RCC_CLOCKTYPE_PCLK2)
 8001b2c:	0708      	lsls	r0, r1, #28
      MODIFY_REG(RCC->CFGR, RCC_CFGR_PPRE2, (RCC_HCLK_DIV16 << 3));
 8001b2e:	bf42      	ittt	mi
 8001b30:	685a      	ldrmi	r2, [r3, #4]
 8001b32:	f442 5260 	orrmi.w	r2, r2, #14336	@ 0x3800
 8001b36:	605a      	strmi	r2, [r3, #4]
    MODIFY_REG(RCC->CFGR, RCC_CFGR_HPRE, RCC_ClkInitStruct->AHBCLKDivider);
 8001b38:	685a      	ldr	r2, [r3, #4]
 8001b3a:	68a0      	ldr	r0, [r4, #8]
 8001b3c:	f022 02f0 	bic.w	r2, r2, #240	@ 0xf0
 8001b40:	4302      	orrs	r2, r0
 8001b42:	605a      	str	r2, [r3, #4]
 8001b44:	e7b9      	b.n	8001aba <HAL_RCC_ClockConfig+0x22>
    if (RCC_ClkInitStruct->SYSCLKSource == RCC_SYSCLKSOURCE_HSE)
 8001b46:	6862      	ldr	r2, [r4, #4]
 8001b48:	4e1d      	ldr	r6, [pc, #116]	@ (8001bc0 <HAL_RCC_ClockConfig+0x128>)
 8001b4a:	2a01      	cmp	r2, #1
      if (__HAL_RCC_GET_FLAG(RCC_FLAG_HSERDY) == RESET)
 8001b4c:	6833      	ldr	r3, [r6, #0]
    if (RCC_ClkInitStruct->SYSCLKSource == RCC_SYSCLKSOURCE_HSE)
 8001b4e:	d11a      	bne.n	8001b86 <HAL_RCC_ClockConfig+0xee>
      if (__HAL_RCC_GET_FLAG(RCC_FLAG_HSERDY) == RESET)
 8001b50:	f413 3f00 	tst.w	r3, #131072	@ 0x20000
      if (__HAL_RCC_GET_FLAG(RCC_FLAG_HSIRDY) == RESET)
 8001b54:	d0a5      	beq.n	8001aa2 <HAL_RCC_ClockConfig+0xa>
    __HAL_RCC_SYSCLK_CONFIG(RCC_ClkInitStruct->SYSCLKSource);
 8001b56:	6873      	ldr	r3, [r6, #4]
      if ((HAL_GetTick() - tickstart) > CLOCKSWITCH_TIMEOUT_VALUE)
 8001b58:	f241 3888 	movw	r8, #5000	@ 0x1388
    __HAL_RCC_SYSCLK_CONFIG(RCC_ClkInitStruct->SYSCLKSource);
 8001b5c:	f023 0303 	bic.w	r3, r3, #3
 8001b60:	4313      	orrs	r3, r2
 8001b62:	6073      	str	r3, [r6, #4]
    tickstart = HAL_GetTick();
 8001b64:	f7ff fa0a 	bl	8000f7c <HAL_GetTick>
 8001b68:	4607      	mov	r7, r0
    while (__HAL_RCC_GET_SYSCLK_SOURCE() != (RCC_ClkInitStruct->SYSCLKSource << RCC_CFGR_SWS_Pos))
 8001b6a:	6873      	ldr	r3, [r6, #4]
 8001b6c:	6862      	ldr	r2, [r4, #4]
 8001b6e:	f003 030c 	and.w	r3, r3, #12
 8001b72:	ebb3 0f82 	cmp.w	r3, r2, lsl #2
 8001b76:	d0a2      	beq.n	8001abe <HAL_RCC_ClockConfig+0x26>
      if ((HAL_GetTick() - tickstart) > CLOCKSWITCH_TIMEOUT_VALUE)
 8001b78:	f7ff fa00 	bl	8000f7c <HAL_GetTick>
 8001b7c:	1bc0      	subs	r0, r0, r7
 8001b7e:	4540      	cmp	r0, r8
 8001b80:	d9f3      	bls.n	8001b6a <HAL_RCC_ClockConfig+0xd2>
        return HAL_TIMEOUT;
 8001b82:	2003      	movs	r0, #3
 8001b84:	e78e      	b.n	8001aa4 <HAL_RCC_ClockConfig+0xc>
    else if (RCC_ClkInitStruct->SYSCLKSource == RCC_SYSCLKSOURCE_PLLCLK)
 8001b86:	2a02      	cmp	r2, #2
 8001b88:	d102      	bne.n	8001b90 <HAL_RCC_ClockConfig+0xf8>
      if (__HAL_RCC_GET_FLAG(RCC_FLAG_PLLRDY) == RESET)
 8001b8a:	f013 7f00 	tst.w	r3, #33554432	@ 0x2000000
 8001b8e:	e7e1      	b.n	8001b54 <HAL_RCC_ClockConfig+0xbc>
      if (__HAL_RCC_GET_FLAG(RCC_FLAG_HSIRDY) == RESET)
 8001b90:	f013 0f02 	tst.w	r3, #2
 8001b94:	e7de      	b.n	8001b54 <HAL_RCC_ClockConfig+0xbc>
    __HAL_FLASH_SET_LATENCY(FLatency);
 8001b96:	6813      	ldr	r3, [r2, #0]
 8001b98:	f023 0307 	bic.w	r3, r3, #7
 8001b9c:	432b      	orrs	r3, r5
 8001b9e:	6013      	str	r3, [r2, #0]
    if (__HAL_FLASH_GET_LATENCY() != FLatency)
 8001ba0:	6813      	ldr	r3, [r2, #0]
 8001ba2:	f003 0307 	and.w	r3, r3, #7
 8001ba6:	42ab      	cmp	r3, r5
 8001ba8:	f47f af7b 	bne.w	8001aa2 <HAL_RCC_ClockConfig+0xa>
 8001bac:	e78d      	b.n	8001aca <HAL_RCC_ClockConfig+0x32>
    MODIFY_REG(RCC->CFGR, RCC_CFGR_PPRE1, RCC_ClkInitStruct->APB1CLKDivider);
 8001bae:	686b      	ldr	r3, [r5, #4]
 8001bb0:	68e1      	ldr	r1, [r4, #12]
 8001bb2:	f423 63e0 	bic.w	r3, r3, #1792	@ 0x700
 8001bb6:	430b      	orrs	r3, r1
 8001bb8:	606b      	str	r3, [r5, #4]
 8001bba:	e78b      	b.n	8001ad4 <HAL_RCC_ClockConfig+0x3c>
 8001bbc:	40022000 	.word	0x40022000
 8001bc0:	40021000 	.word	0x40021000
 8001bc4:	08005a38 	.word	0x08005a38
 8001bc8:	20000008 	.word	0x20000008
 8001bcc:	20000010 	.word	0x20000010

08001bd0 <HAL_RCC_GetPCLK1Freq>:
  return (HAL_RCC_GetHCLKFreq() >> APBPrescTable[(RCC->CFGR & RCC_CFGR_PPRE1) >> RCC_CFGR_PPRE1_Pos]);
 8001bd0:	4b04      	ldr	r3, [pc, #16]	@ (8001be4 <HAL_RCC_GetPCLK1Freq+0x14>)
 8001bd2:	4a05      	ldr	r2, [pc, #20]	@ (8001be8 <HAL_RCC_GetPCLK1Freq+0x18>)
 8001bd4:	685b      	ldr	r3, [r3, #4]
 8001bd6:	f3c3 2302 	ubfx	r3, r3, #8, #3
 8001bda:	5cd3      	ldrb	r3, [r2, r3]
 8001bdc:	4a03      	ldr	r2, [pc, #12]	@ (8001bec <HAL_RCC_GetPCLK1Freq+0x1c>)
 8001bde:	6810      	ldr	r0, [r2, #0]
}
 8001be0:	40d8      	lsrs	r0, r3
 8001be2:	4770      	bx	lr
 8001be4:	40021000 	.word	0x40021000
 8001be8:	08005a30 	.word	0x08005a30
 8001bec:	20000008 	.word	0x20000008

08001bf0 <osKernelStart>:
* @param  argument      pointer that is passed to the thread function as start argument.
* @retval status code that indicates the execution status of the function
* @note   MUST REMAIN UNCHANGED: \b osKernelStart shall be consistent in every CMSIS-RTOS.
*/
osStatus osKernelStart (void)
{
 8001bf0:	b508      	push	{r3, lr}
  vTaskStartScheduler();
 8001bf2:	f000 fe7b 	bl	80028ec <vTaskStartScheduler>
  
  return osOK;
}
 8001bf6:	2000      	movs	r0, #0
 8001bf8:	bd08      	pop	{r3, pc}

08001bfa <osThreadCreate>:
* @param  argument      pointer that is passed to the thread function as start argument.
* @retval thread ID for reference by other functions or NULL in case of error.
* @note   MUST REMAIN UNCHANGED: \b osThreadCreate shall be consistent in every CMSIS-RTOS.
*/
osThreadId osThreadCreate (const osThreadDef_t *thread_def, void *argument)
{
 8001bfa:	b570      	push	{r4, r5, r6, lr}
 8001bfc:	4605      	mov	r5, r0
  TaskHandle_t handle;
  
#if( configSUPPORT_STATIC_ALLOCATION == 1 ) &&  ( configSUPPORT_DYNAMIC_ALLOCATION == 1 )
  if((thread_def->buffer != NULL) && (thread_def->controlblock != NULL)) {
 8001bfe:	6946      	ldr	r6, [r0, #20]
{
 8001c00:	460b      	mov	r3, r1
    handle = xTaskCreateStatic((TaskFunction_t)thread_def->pthread,(const portCHAR *)thread_def->name,
 8001c02:	e9d0 1000 	ldrd	r1, r0, [r0]
              thread_def->stacksize, argument, makeFreeRtosPriority(thread_def->tpriority),
 8001c06:	692a      	ldr	r2, [r5, #16]
 8001c08:	f9b5 4008 	ldrsh.w	r4, [r5, #8]
{
 8001c0c:	b086      	sub	sp, #24
  if((thread_def->buffer != NULL) && (thread_def->controlblock != NULL)) {
 8001c0e:	b176      	cbz	r6, 8001c2e <osThreadCreate+0x34>
 8001c10:	69ad      	ldr	r5, [r5, #24]
 8001c12:	b165      	cbz	r5, 8001c2e <osThreadCreate+0x34>
  if (priority != osPriorityError) {
 8001c14:	2c84      	cmp	r4, #132	@ 0x84
  unsigned portBASE_TYPE fpriority = tskIDLE_PRIORITY;
 8001c16:	bf0c      	ite	eq
 8001c18:	2400      	moveq	r4, #0
    fpriority += (priority - osPriorityIdle);
 8001c1a:	3403      	addne	r4, #3
    handle = xTaskCreateStatic((TaskFunction_t)thread_def->pthread,(const portCHAR *)thread_def->name,
 8001c1c:	e9cd 6501 	strd	r6, r5, [sp, #4]
 8001c20:	9400      	str	r4, [sp, #0]
 8001c22:	f000 fdfe 	bl	8002822 <xTaskCreateStatic>
 8001c26:	9005      	str	r0, [sp, #20]
                   &handle) != pdPASS)  {
    return NULL;
  }     
#endif
  
  return handle;
 8001c28:	9805      	ldr	r0, [sp, #20]
}
 8001c2a:	b006      	add	sp, #24
 8001c2c:	bd70      	pop	{r4, r5, r6, pc}
  if (priority != osPriorityError) {
 8001c2e:	2c84      	cmp	r4, #132	@ 0x84
  unsigned portBASE_TYPE fpriority = tskIDLE_PRIORITY;
 8001c30:	bf0c      	ite	eq
 8001c32:	2400      	moveq	r4, #0
    fpriority += (priority - osPriorityIdle);
 8001c34:	3403      	addne	r4, #3
    if (xTaskCreate((TaskFunction_t)thread_def->pthread,(const portCHAR *)thread_def->name,
 8001c36:	ad05      	add	r5, sp, #20
 8001c38:	e9cd 4500 	strd	r4, r5, [sp]
 8001c3c:	b292      	uxth	r2, r2
 8001c3e:	f000 fe27 	bl	8002890 <xTaskCreate>
 8001c42:	2801      	cmp	r0, #1
 8001c44:	d0f0      	beq.n	8001c28 <osThreadCreate+0x2e>
      return NULL;
 8001c46:	2000      	movs	r0, #0
 8001c48:	e7ef      	b.n	8001c2a <osThreadCreate+0x30>

08001c4a <osDelay>:
* @brief   Wait for Timeout (Time Delay)
* @param   millisec      time delay value
* @retval  status code that indicates the execution status of the function.
*/
osStatus osDelay (uint32_t millisec)
{
 8001c4a:	b508      	push	{r3, lr}
#if INCLUDE_vTaskDelay
  TickType_t ticks = millisec / portTICK_PERIOD_MS;
  
  vTaskDelay(ticks ? ticks : 1);          /* Minimum delay = 1 tick */
 8001c4c:	2801      	cmp	r0, #1
 8001c4e:	bf38      	it	cc
 8001c50:	2001      	movcc	r0, #1
 8001c52:	f000 ffaf 	bl	8002bb4 <vTaskDelay>
#else
  (void) millisec;
  
  return osErrorResource;
#endif
}
 8001c56:	2000      	movs	r0, #0
 8001c58:	bd08      	pop	{r3, pc}
	...

08001c5c <osTimerCreate>:
* @param  argument      argument to the timer call back function.
* @retval  timer ID for reference by other functions or NULL in case of error.
* @note   MUST REMAIN UNCHANGED: \b osTimerCreate shall be consistent in every CMSIS-RTOS.
*/
osTimerId osTimerCreate (const osTimerDef_t *timer_def, os_timer_type type, void *argument)
{
 8001c5c:	b513      	push	{r0, r1, r4, lr}
  if(timer_def->controlblock != NULL) {
    return xTimerCreateStatic((const char *)"",
                      1, // period should be filled when starting the Timer using osTimerStart
                      (type == osTimerPeriodic) ? pdTRUE : pdFALSE,
                      (void *) argument,
                      (TaskFunction_t)timer_def->ptimer,
 8001c5e:	c811      	ldmia	r0, {r0, r4}
    return xTimerCreateStatic((const char *)"",
 8001c60:	3901      	subs	r1, #1
{
 8001c62:	4613      	mov	r3, r2
    return xTimerCreateStatic((const char *)"",
 8001c64:	424a      	negs	r2, r1
 8001c66:	414a      	adcs	r2, r1
  if(timer_def->controlblock != NULL) {
 8001c68:	b13c      	cbz	r4, 8001c7a <osTimerCreate+0x1e>
    return xTimerCreateStatic((const char *)"",
 8001c6a:	e9cd 0400 	strd	r0, r4, [sp]
 8001c6e:	2101      	movs	r1, #1
 8001c70:	4805      	ldr	r0, [pc, #20]	@ (8001c88 <osTimerCreate+0x2c>)
 8001c72:	f001 f9d2 	bl	800301a <xTimerCreateStatic>
#endif

#else 
	return NULL;
#endif
}
 8001c76:	b002      	add	sp, #8
 8001c78:	bd10      	pop	{r4, pc}
    return xTimerCreate((const char *)"",
 8001c7a:	9000      	str	r0, [sp, #0]
 8001c7c:	2101      	movs	r1, #1
 8001c7e:	4802      	ldr	r0, [pc, #8]	@ (8001c88 <osTimerCreate+0x2c>)
 8001c80:	f001 f9a4 	bl	8002fcc <xTimerCreate>
 8001c84:	e7f7      	b.n	8001c76 <osTimerCreate+0x1a>
 8001c86:	bf00      	nop
 8001c88:	08005a71 	.word	0x08005a71

08001c8c <osTimerStart>:
* @param  millisec      time delay value of the timer.
* @retval  status code that indicates the execution status of the function
* @note   MUST REMAIN UNCHANGED: \b osTimerStart shall be consistent in every CMSIS-RTOS.
*/
osStatus osTimerStart (osTimerId timer_id, uint32_t millisec)
{
 8001c8c:	b51f      	push	{r0, r1, r2, r3, r4, lr}
  osStatus result = osOK;
#if (configUSE_TIMERS == 1)  
  portBASE_TYPE taskWoken = pdFALSE;
 8001c8e:	2400      	movs	r4, #0
 8001c90:	2901      	cmp	r1, #1
 8001c92:	460a      	mov	r2, r1
 8001c94:	9403      	str	r4, [sp, #12]
  TickType_t ticks = millisec / portTICK_PERIOD_MS;

  if (ticks == 0)
 8001c96:	bf38      	it	cc
 8001c98:	2201      	movcc	r2, #1
 */
__STATIC_FORCEINLINE uint32_t __get_IPSR(void)
{
  uint32_t result;

  __ASM volatile ("MRS %0, ipsr" : "=r" (result) );
 8001c9a:	f3ef 8305 	mrs	r3, IPSR
    ticks = 1;
    
  if (inHandlerMode()) 
 8001c9e:	b1bb      	cbz	r3, 8001cd0 <osTimerStart+0x44>
  {
    if (xTimerChangePeriodFromISR(timer_id, ticks, &taskWoken) != pdPASS)
 8001ca0:	2109      	movs	r1, #9
 8001ca2:	9400      	str	r4, [sp, #0]
 8001ca4:	ab03      	add	r3, sp, #12
 8001ca6:	f001 f9f5 	bl	8003094 <xTimerGenericCommand>
 8001caa:	2801      	cmp	r0, #1
 8001cac:	d002      	beq.n	8001cb4 <osTimerStart+0x28>
    }
  }
  else 
  {
    if (xTimerChangePeriod(timer_id, ticks, 0) != pdPASS)
      result = osErrorOS;
 8001cae:	20ff      	movs	r0, #255	@ 0xff

#else 
  result = osErrorOS;
#endif
  return result;
}
 8001cb0:	b004      	add	sp, #16
 8001cb2:	bd10      	pop	{r4, pc}
      portEND_SWITCHING_ISR(taskWoken);     
 8001cb4:	9b03      	ldr	r3, [sp, #12]
 8001cb6:	b14b      	cbz	r3, 8001ccc <osTimerStart+0x40>
 8001cb8:	f04f 23e0 	mov.w	r3, #3758153728	@ 0xe000e000
 8001cbc:	f04f 5280 	mov.w	r2, #268435456	@ 0x10000000
 8001cc0:	f8c3 2d04 	str.w	r2, [r3, #3332]	@ 0xd04
 8001cc4:	f3bf 8f4f 	dsb	sy
 8001cc8:	f3bf 8f6f 	isb	sy
  osStatus result = osOK;
 8001ccc:	2000      	movs	r0, #0
  return result;
 8001cce:	e7ef      	b.n	8001cb0 <osTimerStart+0x24>
    if (xTimerChangePeriod(timer_id, ticks, 0) != pdPASS)
 8001cd0:	2104      	movs	r1, #4
 8001cd2:	9300      	str	r3, [sp, #0]
 8001cd4:	f001 f9de 	bl	8003094 <xTimerGenericCommand>
 8001cd8:	2801      	cmp	r0, #1
 8001cda:	d1e8      	bne.n	8001cae <osTimerStart+0x22>
 8001cdc:	e7f6      	b.n	8001ccc <osTimerStart+0x40>

08001cde <osTimerStop>:
* @param  timer_id      timer ID obtained by \ref osTimerCreate
* @retval  status code that indicates the execution status of the function.
* @note   MUST REMAIN UNCHANGED: \b osTimerStop shall be consistent in every CMSIS-RTOS.
*/
osStatus osTimerStop (osTimerId timer_id)
{
 8001cde:	b51f      	push	{r0, r1, r2, r3, r4, lr}
  osStatus result = osOK;
#if (configUSE_TIMERS == 1)  
  portBASE_TYPE taskWoken = pdFALSE;
 8001ce0:	2200      	movs	r2, #0
 8001ce2:	9203      	str	r2, [sp, #12]
 8001ce4:	f3ef 8305 	mrs	r3, IPSR

  if (inHandlerMode()) {
 8001ce8:	b1c3      	cbz	r3, 8001d1c <osTimerStop+0x3e>
    if (xTimerStopFromISR(timer_id, &taskWoken) != pdPASS) {
 8001cea:	2108      	movs	r1, #8
 8001cec:	9200      	str	r2, [sp, #0]
 8001cee:	ab03      	add	r3, sp, #12
 8001cf0:	f001 f9d0 	bl	8003094 <xTimerGenericCommand>
 8001cf4:	2801      	cmp	r0, #1
 8001cf6:	d003      	beq.n	8001d00 <osTimerStop+0x22>
      return osErrorOS;
 8001cf8:	20ff      	movs	r0, #255	@ 0xff
  }
#else 
  result = osErrorOS;
#endif 
  return result;
}
 8001cfa:	b005      	add	sp, #20
 8001cfc:	f85d fb04 	ldr.w	pc, [sp], #4
    portEND_SWITCHING_ISR(taskWoken);
 8001d00:	9b03      	ldr	r3, [sp, #12]
 8001d02:	b14b      	cbz	r3, 8001d18 <osTimerStop+0x3a>
 8001d04:	f04f 23e0 	mov.w	r3, #3758153728	@ 0xe000e000
 8001d08:	f04f 5280 	mov.w	r2, #268435456	@ 0x10000000
 8001d0c:	f8c3 2d04 	str.w	r2, [r3, #3332]	@ 0xd04
 8001d10:	f3bf 8f4f 	dsb	sy
 8001d14:	f3bf 8f6f 	isb	sy
  osStatus result = osOK;
 8001d18:	2000      	movs	r0, #0
 8001d1a:	e7ee      	b.n	8001cfa <osTimerStop+0x1c>
    if (xTimerStop(timer_id, 0) != pdPASS) {
 8001d1c:	461a      	mov	r2, r3
 8001d1e:	2103      	movs	r1, #3
 8001d20:	9300      	str	r3, [sp, #0]
 8001d22:	f001 f9b7 	bl	8003094 <xTimerGenericCommand>
 8001d26:	2801      	cmp	r0, #1
 8001d28:	d1e6      	bne.n	8001cf8 <osTimerStop+0x1a>
 8001d2a:	e7f5      	b.n	8001d18 <osTimerStop+0x3a>

08001d2c <osMessageCreate>:
* @param  thread_id     thread ID (obtained by \ref osThreadCreate or \ref osThreadGetId) or NULL.
* @retval  message queue ID for reference by other functions or NULL in case of error.
* @note   MUST REMAIN UNCHANGED: \b osMessageCreate shall be consistent in every CMSIS-RTOS.
*/
osMessageQId osMessageCreate (const osMessageQDef_t *queue_def, osThreadId thread_id)
{
 8001d2c:	4603      	mov	r3, r0
 8001d2e:	b513      	push	{r0, r1, r4, lr}
  (void) thread_id;
  
#if( configSUPPORT_STATIC_ALLOCATION == 1 ) && ( configSUPPORT_DYNAMIC_ALLOCATION == 1 )

  if ((queue_def->buffer != NULL) && (queue_def->controlblock != NULL)) {
    return xQueueCreateStatic(queue_def->queue_sz, queue_def->item_sz, queue_def->buffer, queue_def->controlblock);
 8001d30:	c807      	ldmia	r0, {r0, r1, r2}
  if ((queue_def->buffer != NULL) && (queue_def->controlblock != NULL)) {
 8001d32:	b10a      	cbz	r2, 8001d38 <osMessageCreate+0xc>
 8001d34:	68db      	ldr	r3, [r3, #12]
 8001d36:	b92b      	cbnz	r3, 8001d44 <osMessageCreate+0x18>
  }
  else {
    return xQueueCreate(queue_def->queue_sz, queue_def->item_sz);
 8001d38:	2200      	movs	r2, #0
#elif ( configSUPPORT_STATIC_ALLOCATION == 1 )
  return xQueueCreateStatic(queue_def->queue_sz, queue_def->item_sz, queue_def->buffer, queue_def->controlblock);
#else  
  return xQueueCreate(queue_def->queue_sz, queue_def->item_sz);
#endif
}
 8001d3a:	b002      	add	sp, #8
 8001d3c:	e8bd 4010 	ldmia.w	sp!, {r4, lr}
    return xQueueCreate(queue_def->queue_sz, queue_def->item_sz);
 8001d40:	f000 b9bb 	b.w	80020ba <xQueueGenericCreate>
    return xQueueCreateStatic(queue_def->queue_sz, queue_def->item_sz, queue_def->buffer, queue_def->controlblock);
 8001d44:	2400      	movs	r4, #0
 8001d46:	9400      	str	r4, [sp, #0]
 8001d48:	f000 f96e 	bl	8002028 <xQueueGenericCreateStatic>
}
 8001d4c:	b002      	add	sp, #8
 8001d4e:	bd10      	pop	{r4, pc}

08001d50 <osMessagePut>:
* @param  millisec  timeout value or 0 in case of no time-out.
* @retval status code that indicates the execution status of the function.
* @note   MUST REMAIN UNCHANGED: \b osMessagePut shall be consistent in every CMSIS-RTOS.
*/
osStatus osMessagePut (osMessageQId queue_id, uint32_t info, uint32_t millisec)
{
 8001d50:	b51f      	push	{r0, r1, r2, r3, r4, lr}
 8001d52:	9101      	str	r1, [sp, #4]
  portBASE_TYPE taskWoken = pdFALSE;
 8001d54:	2100      	movs	r1, #0
 8001d56:	9103      	str	r1, [sp, #12]
 8001d58:	f3ef 8305 	mrs	r3, IPSR
  ticks = millisec / portTICK_PERIOD_MS;
  if (ticks == 0) {
    ticks = 1;
  }
  
  if (inHandlerMode()) {
 8001d5c:	b1c3      	cbz	r3, 8001d90 <osMessagePut+0x40>
    if (xQueueSendFromISR(queue_id, &info, &taskWoken) != pdTRUE) {
 8001d5e:	460b      	mov	r3, r1
 8001d60:	aa03      	add	r2, sp, #12
 8001d62:	a901      	add	r1, sp, #4
 8001d64:	f000 fa7f 	bl	8002266 <xQueueGenericSendFromISR>
 8001d68:	2801      	cmp	r0, #1
 8001d6a:	d003      	beq.n	8001d74 <osMessagePut+0x24>
      return osErrorOS;
 8001d6c:	20ff      	movs	r0, #255	@ 0xff
      return osErrorOS;
    }
  }
  
  return osOK;
}
 8001d6e:	b005      	add	sp, #20
 8001d70:	f85d fb04 	ldr.w	pc, [sp], #4
    portEND_SWITCHING_ISR(taskWoken);
 8001d74:	9b03      	ldr	r3, [sp, #12]
 8001d76:	b14b      	cbz	r3, 8001d8c <osMessagePut+0x3c>
 8001d78:	f04f 23e0 	mov.w	r3, #3758153728	@ 0xe000e000
 8001d7c:	f04f 5280 	mov.w	r2, #268435456	@ 0x10000000
 8001d80:	f8c3 2d04 	str.w	r2, [r3, #3332]	@ 0xd04
 8001d84:	f3bf 8f4f 	dsb	sy
 8001d88:	f3bf 8f6f 	isb	sy
  return osOK;
 8001d8c:	2000      	movs	r0, #0
 8001d8e:	e7ee      	b.n	8001d6e <osMessagePut+0x1e>
    if (xQueueSend(queue_id, &info, ticks) != pdTRUE) {
 8001d90:	2a01      	cmp	r2, #1
 8001d92:	bf38      	it	cc
 8001d94:	2201      	movcc	r2, #1
 8001d96:	a901      	add	r1, sp, #4
 8001d98:	f000 f9b3 	bl	8002102 <xQueueGenericSend>
 8001d9c:	2801      	cmp	r0, #1
 8001d9e:	d0f5      	beq.n	8001d8c <osMessagePut+0x3c>
 8001da0:	e7e4      	b.n	8001d6c <osMessagePut+0x1c>

08001da2 <osMessageGet>:
  portBASE_TYPE taskWoken;
  TickType_t ticks;
  osEvent event;
  
  event.def.message_id = queue_id;
  event.value.v = 0;
 8001da2:	2300      	movs	r3, #0
{
 8001da4:	b530      	push	{r4, r5, lr}
 8001da6:	b085      	sub	sp, #20
 8001da8:	4605      	mov	r5, r0
 8001daa:	4614      	mov	r4, r2
 8001dac:	4608      	mov	r0, r1
  event.def.message_id = queue_id;
 8001dae:	9103      	str	r1, [sp, #12]
  event.value.v = 0;
 8001db0:	9302      	str	r3, [sp, #8]
  
  if (queue_id == NULL) {
 8001db2:	b911      	cbnz	r1, 8001dba <osMessageGet+0x18>
    event.status = osErrorParameter;
 8001db4:	2380      	movs	r3, #128	@ 0x80
    portEND_SWITCHING_ISR(taskWoken);
  }
  else {
    if (xQueueReceive(queue_id, &event.value.v, ticks) == pdTRUE) {
      /* We have mail */
      event.status = osEventMessage;
 8001db6:	9301      	str	r3, [sp, #4]
 8001db8:	e018      	b.n	8001dec <osMessageGet+0x4a>
  taskWoken = pdFALSE;
 8001dba:	9300      	str	r3, [sp, #0]
 8001dbc:	f3ef 8305 	mrs	r3, IPSR
  if (inHandlerMode()) {
 8001dc0:	b1e3      	cbz	r3, 8001dfc <osMessageGet+0x5a>
    if (xQueueReceiveFromISR(queue_id, &event.value.v, &taskWoken) == pdTRUE) {
 8001dc2:	466a      	mov	r2, sp
 8001dc4:	a902      	add	r1, sp, #8
 8001dc6:	f000 fb48 	bl	800245a <xQueueReceiveFromISR>
 8001dca:	1e43      	subs	r3, r0, #1
 8001dcc:	4258      	negs	r0, r3
 8001dce:	4158      	adcs	r0, r3
    portEND_SWITCHING_ISR(taskWoken);
 8001dd0:	9b00      	ldr	r3, [sp, #0]
    if (xQueueReceiveFromISR(queue_id, &event.value.v, &taskWoken) == pdTRUE) {
 8001dd2:	0100      	lsls	r0, r0, #4
 8001dd4:	9001      	str	r0, [sp, #4]
    portEND_SWITCHING_ISR(taskWoken);
 8001dd6:	b14b      	cbz	r3, 8001dec <osMessageGet+0x4a>
 8001dd8:	f04f 23e0 	mov.w	r3, #3758153728	@ 0xe000e000
 8001ddc:	f04f 5280 	mov.w	r2, #268435456	@ 0x10000000
 8001de0:	f8c3 2d04 	str.w	r2, [r3, #3332]	@ 0xd04
 8001de4:	f3bf 8f4f 	dsb	sy
 8001de8:	f3bf 8f6f 	isb	sy
    return event;
 8001dec:	ab04      	add	r3, sp, #16
 8001dee:	e913 0007 	ldmdb	r3, {r0, r1, r2}
 8001df2:	e885 0007 	stmia.w	r5, {r0, r1, r2}
      event.status = (ticks == 0) ? osOK : osEventTimeout;
    }
  }
  
  return event;
}
 8001df6:	4628      	mov	r0, r5
 8001df8:	b005      	add	sp, #20
 8001dfa:	bd30      	pop	{r4, r5, pc}
    if (xQueueReceive(queue_id, &event.value.v, ticks) == pdTRUE) {
 8001dfc:	a902      	add	r1, sp, #8
 8001dfe:	f000 fa8e 	bl	800231e <xQueueReceive>
 8001e02:	2801      	cmp	r0, #1
 8001e04:	d101      	bne.n	8001e0a <osMessageGet+0x68>
      event.status = osEventMessage;
 8001e06:	2310      	movs	r3, #16
 8001e08:	e7d5      	b.n	8001db6 <osMessageGet+0x14>
      event.status = (ticks == 0) ? osOK : osEventTimeout;
 8001e0a:	3c00      	subs	r4, #0
 8001e0c:	bf18      	it	ne
 8001e0e:	2401      	movne	r4, #1
 8001e10:	01a4      	lsls	r4, r4, #6
 8001e12:	9401      	str	r4, [sp, #4]
  return event;
 8001e14:	e7ea      	b.n	8001dec <osMessageGet+0x4a>

08001e16 <vListInitialise>:
	as the only list entry. */
	pxList->pxIndex = ( ListItem_t * ) &( pxList->xListEnd );			/*lint !e826 !e740 The mini list structure is used as the list end to save RAM.  This is checked and valid. */

	/* The list end value is the highest possible value in the list to
	ensure it remains at the end of the list. */
	pxList->xListEnd.xItemValue = portMAX_DELAY;
 8001e16:	f04f 32ff 	mov.w	r2, #4294967295
	pxList->pxIndex = ( ListItem_t * ) &( pxList->xListEnd );			/*lint !e826 !e740 The mini list structure is used as the list end to save RAM.  This is checked and valid. */
 8001e1a:	f100 0308 	add.w	r3, r0, #8

	/* The list end next and previous pointers point to itself so we know
	when the list is empty. */
	pxList->xListEnd.pxNext = ( ListItem_t * ) &( pxList->xListEnd );	/*lint !e826 !e740 The mini list structure is used as the list end to save RAM.  This is checked and valid. */
 8001e1e:	e9c0 2302 	strd	r2, r3, [r0, #8]
	pxList->pxIndex = ( ListItem_t * ) &( pxList->xListEnd );			/*lint !e826 !e740 The mini list structure is used as the list end to save RAM.  This is checked and valid. */
 8001e22:	6043      	str	r3, [r0, #4]
	pxList->xListEnd.pxPrevious = ( ListItem_t * ) &( pxList->xListEnd );/*lint !e826 !e740 The mini list structure is used as the list end to save RAM.  This is checked and valid. */
 8001e24:	6103      	str	r3, [r0, #16]

	pxList->uxNumberOfItems = ( UBaseType_t ) 0U;
 8001e26:	2300      	movs	r3, #0
 8001e28:	6003      	str	r3, [r0, #0]

	/* Write known values into the list if
	configUSE_LIST_DATA_INTEGRITY_CHECK_BYTES is set to 1. */
	listSET_LIST_INTEGRITY_CHECK_1_VALUE( pxList );
	listSET_LIST_INTEGRITY_CHECK_2_VALUE( pxList );
}
 8001e2a:	4770      	bx	lr

08001e2c <vListInitialiseItem>:
/*-----------------------------------------------------------*/

void vListInitialiseItem( ListItem_t * const pxItem )
{
	/* Make sure the list item is not recorded as being on a list. */
	pxItem->pvContainer = NULL;
 8001e2c:	2300      	movs	r3, #0
 8001e2e:	6103      	str	r3, [r0, #16]

	/* Write known values into the list item if
	configUSE_LIST_DATA_INTEGRITY_CHECK_BYTES is set to 1. */
	listSET_FIRST_LIST_ITEM_INTEGRITY_CHECK_VALUE( pxItem );
	listSET_SECOND_LIST_ITEM_INTEGRITY_CHECK_VALUE( pxItem );
}
 8001e30:	4770      	bx	lr

08001e32 <vListInsertEnd>:
/*-----------------------------------------------------------*/

void vListInsertEnd( List_t * const pxList, ListItem_t * const pxNewListItem )
{
ListItem_t * const pxIndex = pxList->pxIndex;
 8001e32:	6843      	ldr	r3, [r0, #4]

	/* Insert a new list item into pxList, but rather than sort the list,
	makes the new list item the last item to be removed by a call to
	listGET_OWNER_OF_NEXT_ENTRY(). */
	pxNewListItem->pxNext = pxIndex;
	pxNewListItem->pxPrevious = pxIndex->pxPrevious;
 8001e34:	689a      	ldr	r2, [r3, #8]
	pxNewListItem->pxNext = pxIndex;
 8001e36:	604b      	str	r3, [r1, #4]
	pxNewListItem->pxPrevious = pxIndex->pxPrevious;
 8001e38:	608a      	str	r2, [r1, #8]

	/* Only used during decision coverage testing. */
	mtCOVERAGE_TEST_DELAY();

	pxIndex->pxPrevious->pxNext = pxNewListItem;
 8001e3a:	6051      	str	r1, [r2, #4]
	pxIndex->pxPrevious = pxNewListItem;
 8001e3c:	6099      	str	r1, [r3, #8]

	/* Remember which list the item is in. */
	pxNewListItem->pvContainer = ( void * ) pxList;

	( pxList->uxNumberOfItems )++;
 8001e3e:	6803      	ldr	r3, [r0, #0]
	pxNewListItem->pvContainer = ( void * ) pxList;
 8001e40:	6108      	str	r0, [r1, #16]
	( pxList->uxNumberOfItems )++;
 8001e42:	3301      	adds	r3, #1
 8001e44:	6003      	str	r3, [r0, #0]
}
 8001e46:	4770      	bx	lr

08001e48 <vListInsert>:
/*-----------------------------------------------------------*/

void vListInsert( List_t * const pxList, ListItem_t * const pxNewListItem )
{
 8001e48:	b530      	push	{r4, r5, lr}
ListItem_t *pxIterator;
const TickType_t xValueOfInsertion = pxNewListItem->xItemValue;
 8001e4a:	680c      	ldr	r4, [r1, #0]
	new list item should be placed after it.  This ensures that TCB's which are
	stored in ready lists (all of which have the same xItemValue value) get a
	share of the CPU.  However, if the xItemValue is the same as the back marker
	the iteration loop below will not end.  Therefore the value is checked
	first, and the algorithm slightly modified if necessary. */
	if( xValueOfInsertion == portMAX_DELAY )
 8001e4c:	1c63      	adds	r3, r4, #1
 8001e4e:	d10a      	bne.n	8001e66 <vListInsert+0x1e>
	{
		pxIterator = pxList->xListEnd.pxPrevious;
 8001e50:	6903      	ldr	r3, [r0, #16]
			/* There is nothing to do here, just iterating to the wanted
			insertion position. */
		}
	}

	pxNewListItem->pxNext = pxIterator->pxNext;
 8001e52:	685a      	ldr	r2, [r3, #4]
 8001e54:	604a      	str	r2, [r1, #4]
	pxNewListItem->pxNext->pxPrevious = pxNewListItem;
 8001e56:	6091      	str	r1, [r2, #8]
	pxNewListItem->pxPrevious = pxIterator;
 8001e58:	608b      	str	r3, [r1, #8]
	pxIterator->pxNext = pxNewListItem;
 8001e5a:	6059      	str	r1, [r3, #4]

	/* Remember which list the item is in.  This allows fast removal of the
	item later. */
	pxNewListItem->pvContainer = ( void * ) pxList;

	( pxList->uxNumberOfItems )++;
 8001e5c:	6803      	ldr	r3, [r0, #0]
	pxNewListItem->pvContainer = ( void * ) pxList;
 8001e5e:	6108      	str	r0, [r1, #16]
	( pxList->uxNumberOfItems )++;
 8001e60:	3301      	adds	r3, #1
 8001e62:	6003      	str	r3, [r0, #0]
}
 8001e64:	bd30      	pop	{r4, r5, pc}
		for( pxIterator = ( ListItem_t * ) &( pxList->xListEnd ); pxIterator->pxNext->xItemValue <= xValueOfInsertion; pxIterator = pxIterator->pxNext ) /*lint !e826 !e740 The mini list structure is used as the list end to save RAM.  This is checked and valid. */
 8001e66:	f100 0208 	add.w	r2, r0, #8
 8001e6a:	4613      	mov	r3, r2
 8001e6c:	6852      	ldr	r2, [r2, #4]
 8001e6e:	6815      	ldr	r5, [r2, #0]
 8001e70:	42a5      	cmp	r5, r4
 8001e72:	d9fa      	bls.n	8001e6a <vListInsert+0x22>
 8001e74:	e7ed      	b.n	8001e52 <vListInsert+0xa>

08001e76 <uxListRemove>:

UBaseType_t uxListRemove( ListItem_t * const pxItemToRemove )
{
/* The list item knows which list it is in.  Obtain the list from the list
item. */
List_t * const pxList = ( List_t * ) pxItemToRemove->pvContainer;
 8001e76:	6903      	ldr	r3, [r0, #16]

	pxItemToRemove->pxNext->pxPrevious = pxItemToRemove->pxPrevious;
 8001e78:	e9d0 1201 	ldrd	r1, r2, [r0, #4]
 8001e7c:	608a      	str	r2, [r1, #8]
	pxItemToRemove->pxPrevious->pxNext = pxItemToRemove->pxNext;
 8001e7e:	6051      	str	r1, [r2, #4]

	/* Only used during decision coverage testing. */
	mtCOVERAGE_TEST_DELAY();

	/* Make sure the index is left pointing to a valid item. */
	if( pxList->pxIndex == pxItemToRemove )
 8001e80:	6859      	ldr	r1, [r3, #4]
 8001e82:	4281      	cmp	r1, r0
	{
		pxList->pxIndex = pxItemToRemove->pxPrevious;
 8001e84:	bf08      	it	eq
 8001e86:	605a      	streq	r2, [r3, #4]
	else
	{
		mtCOVERAGE_TEST_MARKER();
	}

	pxItemToRemove->pvContainer = NULL;
 8001e88:	2200      	movs	r2, #0
 8001e8a:	6102      	str	r2, [r0, #16]
	( pxList->uxNumberOfItems )--;
 8001e8c:	681a      	ldr	r2, [r3, #0]
 8001e8e:	3a01      	subs	r2, #1
 8001e90:	601a      	str	r2, [r3, #0]

	return pxList->uxNumberOfItems;
 8001e92:	6818      	ldr	r0, [r3, #0]
}
 8001e94:	4770      	bx	lr

08001e96 <prvIsQueueEmpty>:
	taskEXIT_CRITICAL();
}
/*-----------------------------------------------------------*/

static BaseType_t prvIsQueueEmpty( const Queue_t *pxQueue )
{
 8001e96:	b510      	push	{r4, lr}
 8001e98:	4604      	mov	r4, r0
BaseType_t xReturn;

	taskENTER_CRITICAL();
 8001e9a:	f001 fab3 	bl	8003404 <vPortEnterCritical>
	{
		if( pxQueue->uxMessagesWaiting == ( UBaseType_t )  0 )
 8001e9e:	6ba4      	ldr	r4, [r4, #56]	@ 0x38
		else
		{
			xReturn = pdFALSE;
		}
	}
	taskEXIT_CRITICAL();
 8001ea0:	f001 fad0 	bl	8003444 <vPortExitCritical>

	return xReturn;
}
 8001ea4:	fab4 f084 	clz	r0, r4
 8001ea8:	0940      	lsrs	r0, r0, #5
 8001eaa:	bd10      	pop	{r4, pc}

08001eac <prvCopyDataToQueue>:
{
 8001eac:	b570      	push	{r4, r5, r6, lr}
 8001eae:	4616      	mov	r6, r2
	if( pxQueue->uxItemSize == ( UBaseType_t ) 0 )
 8001eb0:	6c02      	ldr	r2, [r0, #64]	@ 0x40
{
 8001eb2:	4604      	mov	r4, r0
	uxMessagesWaiting = pxQueue->uxMessagesWaiting;
 8001eb4:	6b85      	ldr	r5, [r0, #56]	@ 0x38
	if( pxQueue->uxItemSize == ( UBaseType_t ) 0 )
 8001eb6:	b942      	cbnz	r2, 8001eca <prvCopyDataToQueue+0x1e>
			if( pxQueue->uxQueueType == queueQUEUE_IS_MUTEX )
 8001eb8:	6806      	ldr	r6, [r0, #0]
 8001eba:	b99e      	cbnz	r6, 8001ee4 <prvCopyDataToQueue+0x38>
				xReturn = xTaskPriorityDisinherit( ( void * ) pxQueue->pxMutexHolder );
 8001ebc:	6840      	ldr	r0, [r0, #4]
 8001ebe:	f000 ffb1 	bl	8002e24 <xTaskPriorityDisinherit>
				pxQueue->pxMutexHolder = NULL;
 8001ec2:	6066      	str	r6, [r4, #4]
	pxQueue->uxMessagesWaiting = uxMessagesWaiting + ( UBaseType_t ) 1;
 8001ec4:	3501      	adds	r5, #1
 8001ec6:	63a5      	str	r5, [r4, #56]	@ 0x38
}
 8001ec8:	bd70      	pop	{r4, r5, r6, pc}
	else if( xPosition == queueSEND_TO_BACK )
 8001eca:	b96e      	cbnz	r6, 8001ee8 <prvCopyDataToQueue+0x3c>
		( void ) memcpy( ( void * ) pxQueue->pcWriteTo, pvItemToQueue, ( size_t ) pxQueue->uxItemSize ); /*lint !e961 !e418 MISRA exception as the casts are only redundant for some ports, plus previous logic ensures a null pointer can only be passed to memcpy() if the copy size is 0. */
 8001ecc:	6880      	ldr	r0, [r0, #8]
 8001ece:	f001 fce3 	bl	8003898 <memcpy>
		pxQueue->pcWriteTo += pxQueue->uxItemSize;
 8001ed2:	68a3      	ldr	r3, [r4, #8]
 8001ed4:	6c22      	ldr	r2, [r4, #64]	@ 0x40
 8001ed6:	4413      	add	r3, r2
		if( pxQueue->pcWriteTo >= pxQueue->pcTail ) /*lint !e946 MISRA exception justified as comparison of pointers is the cleanest solution. */
 8001ed8:	6862      	ldr	r2, [r4, #4]
		pxQueue->pcWriteTo += pxQueue->uxItemSize;
 8001eda:	60a3      	str	r3, [r4, #8]
		if( pxQueue->pcWriteTo >= pxQueue->pcTail ) /*lint !e946 MISRA exception justified as comparison of pointers is the cleanest solution. */
 8001edc:	4293      	cmp	r3, r2
			pxQueue->pcWriteTo = pxQueue->pcHead;
 8001ede:	bf24      	itt	cs
 8001ee0:	6823      	ldrcs	r3, [r4, #0]
 8001ee2:	60a3      	strcs	r3, [r4, #8]
BaseType_t xReturn = pdFALSE;
 8001ee4:	2000      	movs	r0, #0
 8001ee6:	e7ed      	b.n	8001ec4 <prvCopyDataToQueue+0x18>
		( void ) memcpy( ( void * ) pxQueue->u.pcReadFrom, pvItemToQueue, ( size_t ) pxQueue->uxItemSize ); /*lint !e961 MISRA exception as the casts are only redundant for some ports. */
 8001ee8:	68c0      	ldr	r0, [r0, #12]
 8001eea:	f001 fcd5 	bl	8003898 <memcpy>
		pxQueue->u.pcReadFrom -= pxQueue->uxItemSize;
 8001eee:	6c22      	ldr	r2, [r4, #64]	@ 0x40
 8001ef0:	68e3      	ldr	r3, [r4, #12]
 8001ef2:	4251      	negs	r1, r2
 8001ef4:	1a9b      	subs	r3, r3, r2
		if( pxQueue->u.pcReadFrom < pxQueue->pcHead ) /*lint !e946 MISRA exception justified as comparison of pointers is the cleanest solution. */
 8001ef6:	6822      	ldr	r2, [r4, #0]
		pxQueue->u.pcReadFrom -= pxQueue->uxItemSize;
 8001ef8:	60e3      	str	r3, [r4, #12]
		if( pxQueue->u.pcReadFrom < pxQueue->pcHead ) /*lint !e946 MISRA exception justified as comparison of pointers is the cleanest solution. */
 8001efa:	4293      	cmp	r3, r2
			pxQueue->u.pcReadFrom = ( pxQueue->pcTail - pxQueue->uxItemSize );
 8001efc:	bf3e      	ittt	cc
 8001efe:	6863      	ldrcc	r3, [r4, #4]
 8001f00:	185b      	addcc	r3, r3, r1
 8001f02:	60e3      	strcc	r3, [r4, #12]
		if( xPosition == queueOVERWRITE )
 8001f04:	2e02      	cmp	r6, #2
 8001f06:	d1ed      	bne.n	8001ee4 <prvCopyDataToQueue+0x38>
			if( uxMessagesWaiting > ( UBaseType_t ) 0 )
 8001f08:	b10d      	cbz	r5, 8001f0e <prvCopyDataToQueue+0x62>
				--uxMessagesWaiting;
 8001f0a:	3d01      	subs	r5, #1
 8001f0c:	e7ea      	b.n	8001ee4 <prvCopyDataToQueue+0x38>
BaseType_t xReturn = pdFALSE;
 8001f0e:	4628      	mov	r0, r5
 8001f10:	e7d8      	b.n	8001ec4 <prvCopyDataToQueue+0x18>

08001f12 <prvCopyDataFromQueue>:
{
 8001f12:	4603      	mov	r3, r0
	if( pxQueue->uxItemSize != ( UBaseType_t ) 0 )
 8001f14:	6c1a      	ldr	r2, [r3, #64]	@ 0x40
{
 8001f16:	4608      	mov	r0, r1
 8001f18:	b410      	push	{r4}
	if( pxQueue->uxItemSize != ( UBaseType_t ) 0 )
 8001f1a:	b162      	cbz	r2, 8001f36 <prvCopyDataFromQueue+0x24>
		pxQueue->u.pcReadFrom += pxQueue->uxItemSize;
 8001f1c:	68dc      	ldr	r4, [r3, #12]
		if( pxQueue->u.pcReadFrom >= pxQueue->pcTail ) /*lint !e946 MISRA exception justified as use of the relational operator is the cleanest solutions. */
 8001f1e:	6859      	ldr	r1, [r3, #4]
		pxQueue->u.pcReadFrom += pxQueue->uxItemSize;
 8001f20:	4414      	add	r4, r2
		if( pxQueue->u.pcReadFrom >= pxQueue->pcTail ) /*lint !e946 MISRA exception justified as use of the relational operator is the cleanest solutions. */
 8001f22:	428c      	cmp	r4, r1
			pxQueue->u.pcReadFrom = pxQueue->pcHead;
 8001f24:	bf28      	it	cs
 8001f26:	6819      	ldrcs	r1, [r3, #0]
		pxQueue->u.pcReadFrom += pxQueue->uxItemSize;
 8001f28:	60dc      	str	r4, [r3, #12]
			pxQueue->u.pcReadFrom = pxQueue->pcHead;
 8001f2a:	bf28      	it	cs
 8001f2c:	60d9      	strcs	r1, [r3, #12]
		( void ) memcpy( ( void * ) pvBuffer, ( void * ) pxQueue->u.pcReadFrom, ( size_t ) pxQueue->uxItemSize ); /*lint !e961 !e418 MISRA exception as the casts are only redundant for some ports.  Also previous logic ensures a null pointer can only be passed to memcpy() when the count is 0. */
 8001f2e:	68d9      	ldr	r1, [r3, #12]
}
 8001f30:	bc10      	pop	{r4}
		( void ) memcpy( ( void * ) pvBuffer, ( void * ) pxQueue->u.pcReadFrom, ( size_t ) pxQueue->uxItemSize ); /*lint !e961 !e418 MISRA exception as the casts are only redundant for some ports.  Also previous logic ensures a null pointer can only be passed to memcpy() when the count is 0. */
 8001f32:	f001 bcb1 	b.w	8003898 <memcpy>
}
 8001f36:	bc10      	pop	{r4}
 8001f38:	4770      	bx	lr

08001f3a <prvUnlockQueue>:
{
 8001f3a:	b570      	push	{r4, r5, r6, lr}
 8001f3c:	4604      	mov	r4, r0
	taskENTER_CRITICAL();
 8001f3e:	f001 fa61 	bl	8003404 <vPortEnterCritical>
		int8_t cTxLock = pxQueue->cTxLock;
 8001f42:	f894 5045 	ldrb.w	r5, [r4, #69]	@ 0x45
					if( xTaskRemoveFromEventList( &( pxQueue->xTasksWaitingToReceive ) ) != pdFALSE )
 8001f46:	f104 0624 	add.w	r6, r4, #36	@ 0x24
		int8_t cTxLock = pxQueue->cTxLock;
 8001f4a:	b26d      	sxtb	r5, r5
		while( cTxLock > queueLOCKED_UNMODIFIED )
 8001f4c:	2d00      	cmp	r5, #0
 8001f4e:	dc14      	bgt.n	8001f7a <prvUnlockQueue+0x40>
		pxQueue->cTxLock = queueUNLOCKED;
 8001f50:	23ff      	movs	r3, #255	@ 0xff
 8001f52:	f884 3045 	strb.w	r3, [r4, #69]	@ 0x45
	taskEXIT_CRITICAL();
 8001f56:	f001 fa75 	bl	8003444 <vPortExitCritical>
	taskENTER_CRITICAL();
 8001f5a:	f001 fa53 	bl	8003404 <vPortEnterCritical>
		int8_t cRxLock = pxQueue->cRxLock;
 8001f5e:	f894 5044 	ldrb.w	r5, [r4, #68]	@ 0x44
				if( xTaskRemoveFromEventList( &( pxQueue->xTasksWaitingToSend ) ) != pdFALSE )
 8001f62:	f104 0610 	add.w	r6, r4, #16
		int8_t cRxLock = pxQueue->cRxLock;
 8001f66:	b26d      	sxtb	r5, r5
		while( cRxLock > queueLOCKED_UNMODIFIED )
 8001f68:	2d00      	cmp	r5, #0
 8001f6a:	dc12      	bgt.n	8001f92 <prvUnlockQueue+0x58>
		pxQueue->cRxLock = queueUNLOCKED;
 8001f6c:	23ff      	movs	r3, #255	@ 0xff
 8001f6e:	f884 3044 	strb.w	r3, [r4, #68]	@ 0x44
}
 8001f72:	e8bd 4070 	ldmia.w	sp!, {r4, r5, r6, lr}
	taskEXIT_CRITICAL();
 8001f76:	f001 ba65 	b.w	8003444 <vPortExitCritical>
				if( listLIST_IS_EMPTY( &( pxQueue->xTasksWaitingToReceive ) ) == pdFALSE )
 8001f7a:	6a63      	ldr	r3, [r4, #36]	@ 0x24
 8001f7c:	2b00      	cmp	r3, #0
 8001f7e:	d0e7      	beq.n	8001f50 <prvUnlockQueue+0x16>
					if( xTaskRemoveFromEventList( &( pxQueue->xTasksWaitingToReceive ) ) != pdFALSE )
 8001f80:	4630      	mov	r0, r6
 8001f82:	f000 feaf 	bl	8002ce4 <xTaskRemoveFromEventList>
 8001f86:	b108      	cbz	r0, 8001f8c <prvUnlockQueue+0x52>
						vTaskMissedYield();
 8001f88:	f000 ff36 	bl	8002df8 <vTaskMissedYield>
			--cTxLock;
 8001f8c:	3d01      	subs	r5, #1
 8001f8e:	b26d      	sxtb	r5, r5
 8001f90:	e7dc      	b.n	8001f4c <prvUnlockQueue+0x12>
			if( listLIST_IS_EMPTY( &( pxQueue->xTasksWaitingToSend ) ) == pdFALSE )
 8001f92:	6923      	ldr	r3, [r4, #16]
 8001f94:	2b00      	cmp	r3, #0
 8001f96:	d0e9      	beq.n	8001f6c <prvUnlockQueue+0x32>
				if( xTaskRemoveFromEventList( &( pxQueue->xTasksWaitingToSend ) ) != pdFALSE )
 8001f98:	4630      	mov	r0, r6
 8001f9a:	f000 fea3 	bl	8002ce4 <xTaskRemoveFromEventList>
 8001f9e:	b108      	cbz	r0, 8001fa4 <prvUnlockQueue+0x6a>
					vTaskMissedYield();
 8001fa0:	f000 ff2a 	bl	8002df8 <vTaskMissedYield>
				--cRxLock;
 8001fa4:	3d01      	subs	r5, #1
 8001fa6:	b26d      	sxtb	r5, r5
 8001fa8:	e7de      	b.n	8001f68 <prvUnlockQueue+0x2e>

08001faa <xQueueGenericReset>:
{
 8001faa:	b538      	push	{r3, r4, r5, lr}
 8001fac:	460d      	mov	r5, r1
	configASSERT( pxQueue );
 8001fae:	4604      	mov	r4, r0
 8001fb0:	b940      	cbnz	r0, 8001fc4 <xQueueGenericReset+0x1a>

portFORCE_INLINE static void vPortRaiseBASEPRI( void )
{
uint32_t ulNewBASEPRI;

	__asm volatile
 8001fb2:	f04f 0350 	mov.w	r3, #80	@ 0x50
 8001fb6:	f383 8811 	msr	BASEPRI, r3
 8001fba:	f3bf 8f6f 	isb	sy
 8001fbe:	f3bf 8f4f 	dsb	sy
 8001fc2:	e7fe      	b.n	8001fc2 <xQueueGenericReset+0x18>
	taskENTER_CRITICAL();
 8001fc4:	f001 fa1e 	bl	8003404 <vPortEnterCritical>
		pxQueue->pcTail = pxQueue->pcHead + ( pxQueue->uxLength * pxQueue->uxItemSize );
 8001fc8:	e9d4 310f 	ldrd	r3, r1, [r4, #60]	@ 0x3c
 8001fcc:	434b      	muls	r3, r1
 8001fce:	6822      	ldr	r2, [r4, #0]
 8001fd0:	18d0      	adds	r0, r2, r3
		pxQueue->u.pcReadFrom = pxQueue->pcHead + ( ( pxQueue->uxLength - ( UBaseType_t ) 1U ) * pxQueue->uxItemSize );
 8001fd2:	1a5b      	subs	r3, r3, r1
		pxQueue->pcTail = pxQueue->pcHead + ( pxQueue->uxLength * pxQueue->uxItemSize );
 8001fd4:	6060      	str	r0, [r4, #4]
		pxQueue->pcWriteTo = pxQueue->pcHead;
 8001fd6:	60a2      	str	r2, [r4, #8]
		pxQueue->uxMessagesWaiting = ( UBaseType_t ) 0U;
 8001fd8:	2000      	movs	r0, #0
		pxQueue->u.pcReadFrom = pxQueue->pcHead + ( ( pxQueue->uxLength - ( UBaseType_t ) 1U ) * pxQueue->uxItemSize );
 8001fda:	441a      	add	r2, r3
		pxQueue->cRxLock = queueUNLOCKED;
 8001fdc:	23ff      	movs	r3, #255	@ 0xff
		pxQueue->uxMessagesWaiting = ( UBaseType_t ) 0U;
 8001fde:	63a0      	str	r0, [r4, #56]	@ 0x38
		pxQueue->u.pcReadFrom = pxQueue->pcHead + ( ( pxQueue->uxLength - ( UBaseType_t ) 1U ) * pxQueue->uxItemSize );
 8001fe0:	60e2      	str	r2, [r4, #12]
		pxQueue->cRxLock = queueUNLOCKED;
 8001fe2:	f884 3044 	strb.w	r3, [r4, #68]	@ 0x44
		pxQueue->cTxLock = queueUNLOCKED;
 8001fe6:	f884 3045 	strb.w	r3, [r4, #69]	@ 0x45
		if( xNewQueue == pdFALSE )
 8001fea:	b9a5      	cbnz	r5, 8002016 <xQueueGenericReset+0x6c>
			if( listLIST_IS_EMPTY( &( pxQueue->xTasksWaitingToSend ) ) == pdFALSE )
 8001fec:	6923      	ldr	r3, [r4, #16]
 8001fee:	b173      	cbz	r3, 800200e <xQueueGenericReset+0x64>
				if( xTaskRemoveFromEventList( &( pxQueue->xTasksWaitingToSend ) ) != pdFALSE )
 8001ff0:	f104 0010 	add.w	r0, r4, #16
 8001ff4:	f000 fe76 	bl	8002ce4 <xTaskRemoveFromEventList>
 8001ff8:	b148      	cbz	r0, 800200e <xQueueGenericReset+0x64>
					queueYIELD_IF_USING_PREEMPTION();
 8001ffa:	f04f 23e0 	mov.w	r3, #3758153728	@ 0xe000e000
 8001ffe:	f04f 5280 	mov.w	r2, #268435456	@ 0x10000000
 8002002:	f8c3 2d04 	str.w	r2, [r3, #3332]	@ 0xd04
 8002006:	f3bf 8f4f 	dsb	sy
 800200a:	f3bf 8f6f 	isb	sy
	taskEXIT_CRITICAL();
 800200e:	f001 fa19 	bl	8003444 <vPortExitCritical>
}
 8002012:	2001      	movs	r0, #1
 8002014:	bd38      	pop	{r3, r4, r5, pc}
			vListInitialise( &( pxQueue->xTasksWaitingToSend ) );
 8002016:	f104 0010 	add.w	r0, r4, #16
 800201a:	f7ff fefc 	bl	8001e16 <vListInitialise>
			vListInitialise( &( pxQueue->xTasksWaitingToReceive ) );
 800201e:	f104 0024 	add.w	r0, r4, #36	@ 0x24
 8002022:	f7ff fef8 	bl	8001e16 <vListInitialise>
 8002026:	e7f2      	b.n	800200e <xQueueGenericReset+0x64>

08002028 <xQueueGenericCreateStatic>:
	{
 8002028:	b537      	push	{r0, r1, r2, r4, r5, lr}
 800202a:	460d      	mov	r5, r1
 800202c:	461c      	mov	r4, r3
		configASSERT( uxQueueLength > ( UBaseType_t ) 0 );
 800202e:	b940      	cbnz	r0, 8002042 <xQueueGenericCreateStatic+0x1a>
 8002030:	f04f 0350 	mov.w	r3, #80	@ 0x50
 8002034:	f383 8811 	msr	BASEPRI, r3
 8002038:	f3bf 8f6f 	isb	sy
 800203c:	f3bf 8f4f 	dsb	sy
 8002040:	e7fe      	b.n	8002040 <xQueueGenericCreateStatic+0x18>
		configASSERT( pxStaticQueue != NULL );
 8002042:	b943      	cbnz	r3, 8002056 <xQueueGenericCreateStatic+0x2e>
 8002044:	f04f 0350 	mov.w	r3, #80	@ 0x50
 8002048:	f383 8811 	msr	BASEPRI, r3
 800204c:	f3bf 8f6f 	isb	sy
 8002050:	f3bf 8f4f 	dsb	sy
 8002054:	e7fe      	b.n	8002054 <xQueueGenericCreateStatic+0x2c>
		configASSERT( !( ( pucQueueStorage != NULL ) && ( uxItemSize == 0 ) ) );
 8002056:	b14a      	cbz	r2, 800206c <xQueueGenericCreateStatic+0x44>
 8002058:	b991      	cbnz	r1, 8002080 <xQueueGenericCreateStatic+0x58>
 800205a:	f04f 0350 	mov.w	r3, #80	@ 0x50
 800205e:	f383 8811 	msr	BASEPRI, r3
 8002062:	f3bf 8f6f 	isb	sy
 8002066:	f3bf 8f4f 	dsb	sy
 800206a:	e7fe      	b.n	800206a <xQueueGenericCreateStatic+0x42>
		configASSERT( !( ( pucQueueStorage == NULL ) && ( uxItemSize != 0 ) ) );
 800206c:	b141      	cbz	r1, 8002080 <xQueueGenericCreateStatic+0x58>
 800206e:	f04f 0350 	mov.w	r3, #80	@ 0x50
 8002072:	f383 8811 	msr	BASEPRI, r3
 8002076:	f3bf 8f6f 	isb	sy
 800207a:	f3bf 8f4f 	dsb	sy
 800207e:	e7fe      	b.n	800207e <xQueueGenericCreateStatic+0x56>
			volatile size_t xSize = sizeof( StaticQueue_t );
 8002080:	2348      	movs	r3, #72	@ 0x48
 8002082:	9301      	str	r3, [sp, #4]
			configASSERT( xSize == sizeof( Queue_t ) );
 8002084:	9b01      	ldr	r3, [sp, #4]
 8002086:	2b48      	cmp	r3, #72	@ 0x48
 8002088:	d008      	beq.n	800209c <xQueueGenericCreateStatic+0x74>
 800208a:	f04f 0350 	mov.w	r3, #80	@ 0x50
 800208e:	f383 8811 	msr	BASEPRI, r3
 8002092:	f3bf 8f6f 	isb	sy
 8002096:	f3bf 8f4f 	dsb	sy
 800209a:	e7fe      	b.n	800209a <xQueueGenericCreateStatic+0x72>
				pxNewQueue->ucStaticallyAllocated = pdTRUE;
 800209c:	2101      	movs	r1, #1
		pxNewQueue->pcHead = ( int8_t * ) pxNewQueue;
 800209e:	2d00      	cmp	r5, #0
 80020a0:	bf08      	it	eq
 80020a2:	4622      	moveq	r2, r4
	pxNewQueue->uxItemSize = uxItemSize;
 80020a4:	e9c4 050f 	strd	r0, r5, [r4, #60]	@ 0x3c
				pxNewQueue->ucStaticallyAllocated = pdTRUE;
 80020a8:	f884 1046 	strb.w	r1, [r4, #70]	@ 0x46
	( void ) xQueueGenericReset( pxNewQueue, pdTRUE );
 80020ac:	4620      	mov	r0, r4
 80020ae:	6022      	str	r2, [r4, #0]
 80020b0:	f7ff ff7b 	bl	8001faa <xQueueGenericReset>
	}
 80020b4:	4620      	mov	r0, r4
 80020b6:	b003      	add	sp, #12
 80020b8:	bd30      	pop	{r4, r5, pc}

080020ba <xQueueGenericCreate>:
	{
 80020ba:	b570      	push	{r4, r5, r6, lr}
 80020bc:	460d      	mov	r5, r1
		configASSERT( uxQueueLength > ( UBaseType_t ) 0 );
 80020be:	4606      	mov	r6, r0
 80020c0:	b940      	cbnz	r0, 80020d4 <xQueueGenericCreate+0x1a>
 80020c2:	f04f 0350 	mov.w	r3, #80	@ 0x50
 80020c6:	f383 8811 	msr	BASEPRI, r3
 80020ca:	f3bf 8f6f 	isb	sy
 80020ce:	f3bf 8f4f 	dsb	sy
 80020d2:	e7fe      	b.n	80020d2 <xQueueGenericCreate+0x18>
			xQueueSizeInBytes = ( size_t ) ( uxQueueLength * uxItemSize ); /*lint !e961 MISRA exception as the casts are only redundant for some ports. */
 80020d4:	4348      	muls	r0, r1
		pxNewQueue = ( Queue_t * ) pvPortMalloc( sizeof( Queue_t ) + xQueueSizeInBytes );
 80020d6:	3048      	adds	r0, #72	@ 0x48
 80020d8:	f001 fac0 	bl	800365c <pvPortMalloc>
		if( pxNewQueue != NULL )
 80020dc:	4604      	mov	r4, r0
 80020de:	b160      	cbz	r0, 80020fa <xQueueGenericCreate+0x40>
				pxNewQueue->ucStaticallyAllocated = pdFALSE;
 80020e0:	2300      	movs	r3, #0
 80020e2:	f880 3046 	strb.w	r3, [r0, #70]	@ 0x46
	if( uxItemSize == ( UBaseType_t ) 0 )
 80020e6:	b155      	cbz	r5, 80020fe <xQueueGenericCreate+0x44>
			pucQueueStorage = ( ( uint8_t * ) pxNewQueue ) + sizeof( Queue_t );
 80020e8:	f100 0348 	add.w	r3, r0, #72	@ 0x48
	( void ) xQueueGenericReset( pxNewQueue, pdTRUE );
 80020ec:	2101      	movs	r1, #1
 80020ee:	4620      	mov	r0, r4
	pxNewQueue->uxItemSize = uxItemSize;
 80020f0:	e9c4 650f 	strd	r6, r5, [r4, #60]	@ 0x3c
 80020f4:	6023      	str	r3, [r4, #0]
	( void ) xQueueGenericReset( pxNewQueue, pdTRUE );
 80020f6:	f7ff ff58 	bl	8001faa <xQueueGenericReset>
	}
 80020fa:	4620      	mov	r0, r4
 80020fc:	bd70      	pop	{r4, r5, r6, pc}
		pxNewQueue->pcHead = ( int8_t * ) pxNewQueue;
 80020fe:	4603      	mov	r3, r0
 8002100:	e7f4      	b.n	80020ec <xQueueGenericCreate+0x32>

08002102 <xQueueGenericSend>:
{
 8002102:	e92d 41ff 	stmdb	sp!, {r0, r1, r2, r3, r4, r5, r6, r7, r8, lr}
 8002106:	460f      	mov	r7, r1
 8002108:	461e      	mov	r6, r3
	configASSERT( pxQueue );
 800210a:	4604      	mov	r4, r0
{
 800210c:	9201      	str	r2, [sp, #4]
	configASSERT( pxQueue );
 800210e:	b940      	cbnz	r0, 8002122 <xQueueGenericSend+0x20>
 8002110:	f04f 0350 	mov.w	r3, #80	@ 0x50
 8002114:	f383 8811 	msr	BASEPRI, r3
 8002118:	f3bf 8f6f 	isb	sy
 800211c:	f3bf 8f4f 	dsb	sy
 8002120:	e7fe      	b.n	8002120 <xQueueGenericSend+0x1e>
	configASSERT( !( ( pvItemToQueue == NULL ) && ( pxQueue->uxItemSize != ( UBaseType_t ) 0U ) ) );
 8002122:	b951      	cbnz	r1, 800213a <xQueueGenericSend+0x38>
 8002124:	6c03      	ldr	r3, [r0, #64]	@ 0x40
 8002126:	b143      	cbz	r3, 800213a <xQueueGenericSend+0x38>
 8002128:	f04f 0350 	mov.w	r3, #80	@ 0x50
 800212c:	f383 8811 	msr	BASEPRI, r3
 8002130:	f3bf 8f6f 	isb	sy
 8002134:	f3bf 8f4f 	dsb	sy
 8002138:	e7fe      	b.n	8002138 <xQueueGenericSend+0x36>
	configASSERT( !( ( xCopyPosition == queueOVERWRITE ) && ( pxQueue->uxLength != 1 ) ) );
 800213a:	2e02      	cmp	r6, #2
 800213c:	d10b      	bne.n	8002156 <xQueueGenericSend+0x54>
 800213e:	6be3      	ldr	r3, [r4, #60]	@ 0x3c
 8002140:	2b01      	cmp	r3, #1
 8002142:	d008      	beq.n	8002156 <xQueueGenericSend+0x54>
 8002144:	f04f 0350 	mov.w	r3, #80	@ 0x50
 8002148:	f383 8811 	msr	BASEPRI, r3
 800214c:	f3bf 8f6f 	isb	sy
 8002150:	f3bf 8f4f 	dsb	sy
 8002154:	e7fe      	b.n	8002154 <xQueueGenericSend+0x52>
		configASSERT( !( ( xTaskGetSchedulerState() == taskSCHEDULER_SUSPENDED ) && ( xTicksToWait != 0 ) ) );
 8002156:	f000 fe55 	bl	8002e04 <xTaskGetSchedulerState>
 800215a:	4605      	mov	r5, r0
 800215c:	b330      	cbz	r0, 80021ac <xQueueGenericSend+0xaa>
 800215e:	2500      	movs	r5, #0
		prvLockQueue( pxQueue );
 8002160:	f04f 0800 	mov.w	r8, #0
		taskENTER_CRITICAL();
 8002164:	f001 f94e 	bl	8003404 <vPortEnterCritical>
			if( ( pxQueue->uxMessagesWaiting < pxQueue->uxLength ) || ( xCopyPosition == queueOVERWRITE ) )
 8002168:	6ba2      	ldr	r2, [r4, #56]	@ 0x38
 800216a:	6be3      	ldr	r3, [r4, #60]	@ 0x3c
 800216c:	429a      	cmp	r2, r3
 800216e:	d301      	bcc.n	8002174 <xQueueGenericSend+0x72>
 8002170:	2e02      	cmp	r6, #2
 8002172:	d127      	bne.n	80021c4 <xQueueGenericSend+0xc2>
				xYieldRequired = prvCopyDataToQueue( pxQueue, pvItemToQueue, xCopyPosition );
 8002174:	4632      	mov	r2, r6
 8002176:	4639      	mov	r1, r7
 8002178:	4620      	mov	r0, r4
 800217a:	f7ff fe97 	bl	8001eac <prvCopyDataToQueue>
					if( listLIST_IS_EMPTY( &( pxQueue->xTasksWaitingToReceive ) ) == pdFALSE )
 800217e:	6a63      	ldr	r3, [r4, #36]	@ 0x24
 8002180:	b11b      	cbz	r3, 800218a <xQueueGenericSend+0x88>
						if( xTaskRemoveFromEventList( &( pxQueue->xTasksWaitingToReceive ) ) != pdFALSE )
 8002182:	f104 0024 	add.w	r0, r4, #36	@ 0x24
 8002186:	f000 fdad 	bl	8002ce4 <xTaskRemoveFromEventList>
					else if( xYieldRequired != pdFALSE )
 800218a:	b148      	cbz	r0, 80021a0 <xQueueGenericSend+0x9e>
						queueYIELD_IF_USING_PREEMPTION();
 800218c:	f04f 23e0 	mov.w	r3, #3758153728	@ 0xe000e000
 8002190:	f04f 5280 	mov.w	r2, #268435456	@ 0x10000000
 8002194:	f8c3 2d04 	str.w	r2, [r3, #3332]	@ 0xd04
 8002198:	f3bf 8f4f 	dsb	sy
 800219c:	f3bf 8f6f 	isb	sy
				taskEXIT_CRITICAL();
 80021a0:	f001 f950 	bl	8003444 <vPortExitCritical>
				return pdPASS;
 80021a4:	2001      	movs	r0, #1
}
 80021a6:	b004      	add	sp, #16
 80021a8:	e8bd 81f0 	ldmia.w	sp!, {r4, r5, r6, r7, r8, pc}
		configASSERT( !( ( xTaskGetSchedulerState() == taskSCHEDULER_SUSPENDED ) && ( xTicksToWait != 0 ) ) );
 80021ac:	9b01      	ldr	r3, [sp, #4]
 80021ae:	2b00      	cmp	r3, #0
 80021b0:	d0d6      	beq.n	8002160 <xQueueGenericSend+0x5e>
 80021b2:	f04f 0350 	mov.w	r3, #80	@ 0x50
 80021b6:	f383 8811 	msr	BASEPRI, r3
 80021ba:	f3bf 8f6f 	isb	sy
 80021be:	f3bf 8f4f 	dsb	sy
 80021c2:	e7fe      	b.n	80021c2 <xQueueGenericSend+0xc0>
				if( xTicksToWait == ( TickType_t ) 0 )
 80021c4:	9b01      	ldr	r3, [sp, #4]
 80021c6:	b91b      	cbnz	r3, 80021d0 <xQueueGenericSend+0xce>
					taskEXIT_CRITICAL();
 80021c8:	f001 f93c 	bl	8003444 <vPortExitCritical>
					return errQUEUE_FULL;
 80021cc:	2000      	movs	r0, #0
 80021ce:	e7ea      	b.n	80021a6 <xQueueGenericSend+0xa4>
				else if( xEntryTimeSet == pdFALSE )
 80021d0:	b915      	cbnz	r5, 80021d8 <xQueueGenericSend+0xd6>
					vTaskInternalSetTimeOutState( &xTimeOut );
 80021d2:	a802      	add	r0, sp, #8
 80021d4:	f000 fdc8 	bl	8002d68 <vTaskInternalSetTimeOutState>
		taskEXIT_CRITICAL();
 80021d8:	f001 f934 	bl	8003444 <vPortExitCritical>
		vTaskSuspendAll();
 80021dc:	f000 fbcc 	bl	8002978 <vTaskSuspendAll>
		prvLockQueue( pxQueue );
 80021e0:	f001 f910 	bl	8003404 <vPortEnterCritical>
 80021e4:	f894 3044 	ldrb.w	r3, [r4, #68]	@ 0x44
 80021e8:	2bff      	cmp	r3, #255	@ 0xff
 80021ea:	bf08      	it	eq
 80021ec:	f884 8044 	strbeq.w	r8, [r4, #68]	@ 0x44
 80021f0:	f894 3045 	ldrb.w	r3, [r4, #69]	@ 0x45
 80021f4:	2bff      	cmp	r3, #255	@ 0xff
 80021f6:	bf08      	it	eq
 80021f8:	f884 8045 	strbeq.w	r8, [r4, #69]	@ 0x45
 80021fc:	f001 f922 	bl	8003444 <vPortExitCritical>
		if( xTaskCheckForTimeOut( &xTimeOut, &xTicksToWait ) == pdFALSE )
 8002200:	a901      	add	r1, sp, #4
 8002202:	a802      	add	r0, sp, #8
 8002204:	f000 fdbc 	bl	8002d80 <xTaskCheckForTimeOut>
 8002208:	bb38      	cbnz	r0, 800225a <xQueueGenericSend+0x158>

static BaseType_t prvIsQueueFull( const Queue_t *pxQueue )
{
BaseType_t xReturn;

	taskENTER_CRITICAL();
 800220a:	f001 f8fb 	bl	8003404 <vPortEnterCritical>
	{
		if( pxQueue->uxMessagesWaiting == pxQueue->uxLength )
 800220e:	6ba2      	ldr	r2, [r4, #56]	@ 0x38
 8002210:	6be3      	ldr	r3, [r4, #60]	@ 0x3c
 8002212:	429a      	cmp	r2, r3
 8002214:	d10e      	bne.n	8002234 <xQueueGenericSend+0x132>
		else
		{
			xReturn = pdFALSE;
		}
	}
	taskEXIT_CRITICAL();
 8002216:	f001 f915 	bl	8003444 <vPortExitCritical>
				vTaskPlaceOnEventList( &( pxQueue->xTasksWaitingToSend ), xTicksToWait );
 800221a:	9901      	ldr	r1, [sp, #4]
 800221c:	f104 0010 	add.w	r0, r4, #16
 8002220:	f000 fd26 	bl	8002c70 <vTaskPlaceOnEventList>
				prvUnlockQueue( pxQueue );
 8002224:	4620      	mov	r0, r4
 8002226:	f7ff fe88 	bl	8001f3a <prvUnlockQueue>
				if( xTaskResumeAll() == pdFALSE )
 800222a:	f000 fc4d 	bl	8002ac8 <xTaskResumeAll>
 800222e:	b148      	cbz	r0, 8002244 <xQueueGenericSend+0x142>
 8002230:	2501      	movs	r5, #1
 8002232:	e797      	b.n	8002164 <xQueueGenericSend+0x62>
	taskEXIT_CRITICAL();
 8002234:	f001 f906 	bl	8003444 <vPortExitCritical>
				prvUnlockQueue( pxQueue );
 8002238:	4620      	mov	r0, r4
 800223a:	f7ff fe7e 	bl	8001f3a <prvUnlockQueue>
				( void ) xTaskResumeAll();
 800223e:	f000 fc43 	bl	8002ac8 <xTaskResumeAll>
 8002242:	e7f5      	b.n	8002230 <xQueueGenericSend+0x12e>
					portYIELD_WITHIN_API();
 8002244:	f04f 23e0 	mov.w	r3, #3758153728	@ 0xe000e000
 8002248:	f04f 5280 	mov.w	r2, #268435456	@ 0x10000000
 800224c:	f8c3 2d04 	str.w	r2, [r3, #3332]	@ 0xd04
 8002250:	f3bf 8f4f 	dsb	sy
 8002254:	f3bf 8f6f 	isb	sy
 8002258:	e7ea      	b.n	8002230 <xQueueGenericSend+0x12e>
			prvUnlockQueue( pxQueue );
 800225a:	4620      	mov	r0, r4
 800225c:	f7ff fe6d 	bl	8001f3a <prvUnlockQueue>
			( void ) xTaskResumeAll();
 8002260:	f000 fc32 	bl	8002ac8 <xTaskResumeAll>
			return errQUEUE_FULL;
 8002264:	e7b2      	b.n	80021cc <xQueueGenericSend+0xca>

08002266 <xQueueGenericSendFromISR>:
{
 8002266:	e92d 43f8 	stmdb	sp!, {r3, r4, r5, r6, r7, r8, r9, lr}
 800226a:	4689      	mov	r9, r1
 800226c:	4617      	mov	r7, r2
 800226e:	461e      	mov	r6, r3
	configASSERT( pxQueue );
 8002270:	4604      	mov	r4, r0
 8002272:	b940      	cbnz	r0, 8002286 <xQueueGenericSendFromISR+0x20>
 8002274:	f04f 0350 	mov.w	r3, #80	@ 0x50
 8002278:	f383 8811 	msr	BASEPRI, r3
 800227c:	f3bf 8f6f 	isb	sy
 8002280:	f3bf 8f4f 	dsb	sy
 8002284:	e7fe      	b.n	8002284 <xQueueGenericSendFromISR+0x1e>
	configASSERT( !( ( pvItemToQueue == NULL ) && ( pxQueue->uxItemSize != ( UBaseType_t ) 0U ) ) );
 8002286:	b951      	cbnz	r1, 800229e <xQueueGenericSendFromISR+0x38>
 8002288:	6c03      	ldr	r3, [r0, #64]	@ 0x40
 800228a:	b143      	cbz	r3, 800229e <xQueueGenericSendFromISR+0x38>
 800228c:	f04f 0350 	mov.w	r3, #80	@ 0x50
 8002290:	f383 8811 	msr	BASEPRI, r3
 8002294:	f3bf 8f6f 	isb	sy
 8002298:	f3bf 8f4f 	dsb	sy
 800229c:	e7fe      	b.n	800229c <xQueueGenericSendFromISR+0x36>
	configASSERT( !( ( xCopyPosition == queueOVERWRITE ) && ( pxQueue->uxLength != 1 ) ) );
 800229e:	2e02      	cmp	r6, #2
 80022a0:	d10b      	bne.n	80022ba <xQueueGenericSendFromISR+0x54>
 80022a2:	6be3      	ldr	r3, [r4, #60]	@ 0x3c
 80022a4:	2b01      	cmp	r3, #1
 80022a6:	d008      	beq.n	80022ba <xQueueGenericSendFromISR+0x54>
 80022a8:	f04f 0350 	mov.w	r3, #80	@ 0x50
 80022ac:	f383 8811 	msr	BASEPRI, r3
 80022b0:	f3bf 8f6f 	isb	sy
 80022b4:	f3bf 8f4f 	dsb	sy
 80022b8:	e7fe      	b.n	80022b8 <xQueueGenericSendFromISR+0x52>
	portASSERT_IF_INTERRUPT_PRIORITY_INVALID();
 80022ba:	f001 f97b 	bl	80035b4 <vPortValidateInterruptPriority>

portFORCE_INLINE static uint32_t ulPortRaiseBASEPRI( void )
{
uint32_t ulOriginalBASEPRI, ulNewBASEPRI;

	__asm volatile
 80022be:	f3ef 8811 	mrs	r8, BASEPRI
 80022c2:	f04f 0350 	mov.w	r3, #80	@ 0x50
 80022c6:	f383 8811 	msr	BASEPRI, r3
 80022ca:	f3bf 8f6f 	isb	sy
 80022ce:	f3bf 8f4f 	dsb	sy
		if( ( pxQueue->uxMessagesWaiting < pxQueue->uxLength ) || ( xCopyPosition == queueOVERWRITE ) )
 80022d2:	6ba2      	ldr	r2, [r4, #56]	@ 0x38
 80022d4:	6be3      	ldr	r3, [r4, #60]	@ 0x3c
 80022d6:	429a      	cmp	r2, r3
 80022d8:	d301      	bcc.n	80022de <xQueueGenericSendFromISR+0x78>
 80022da:	2e02      	cmp	r6, #2
 80022dc:	d11d      	bne.n	800231a <xQueueGenericSendFromISR+0xb4>
			const int8_t cTxLock = pxQueue->cTxLock;
 80022de:	f894 5045 	ldrb.w	r5, [r4, #69]	@ 0x45
			( void ) prvCopyDataToQueue( pxQueue, pvItemToQueue, xCopyPosition );
 80022e2:	4632      	mov	r2, r6
 80022e4:	4649      	mov	r1, r9
 80022e6:	4620      	mov	r0, r4
			const int8_t cTxLock = pxQueue->cTxLock;
 80022e8:	b26d      	sxtb	r5, r5
			( void ) prvCopyDataToQueue( pxQueue, pvItemToQueue, xCopyPosition );
 80022ea:	f7ff fddf 	bl	8001eac <prvCopyDataToQueue>
			if( cTxLock == queueUNLOCKED )
 80022ee:	1c6b      	adds	r3, r5, #1
 80022f0:	d10e      	bne.n	8002310 <xQueueGenericSendFromISR+0xaa>
					if( listLIST_IS_EMPTY( &( pxQueue->xTasksWaitingToReceive ) ) == pdFALSE )
 80022f2:	6a63      	ldr	r3, [r4, #36]	@ 0x24
 80022f4:	b13b      	cbz	r3, 8002306 <xQueueGenericSendFromISR+0xa0>
						if( xTaskRemoveFromEventList( &( pxQueue->xTasksWaitingToReceive ) ) != pdFALSE )
 80022f6:	f104 0024 	add.w	r0, r4, #36	@ 0x24
 80022fa:	f000 fcf3 	bl	8002ce4 <xTaskRemoveFromEventList>
 80022fe:	b110      	cbz	r0, 8002306 <xQueueGenericSendFromISR+0xa0>
							if( pxHigherPriorityTaskWoken != NULL )
 8002300:	b10f      	cbz	r7, 8002306 <xQueueGenericSendFromISR+0xa0>
								*pxHigherPriorityTaskWoken = pdTRUE;
 8002302:	2301      	movs	r3, #1
 8002304:	603b      	str	r3, [r7, #0]
			xReturn = pdPASS;
 8002306:	2001      	movs	r0, #1
}
/*-----------------------------------------------------------*/

portFORCE_INLINE static void vPortSetBASEPRI( uint32_t ulNewMaskValue )
{
	__asm volatile
 8002308:	f388 8811 	msr	BASEPRI, r8
}
 800230c:	e8bd 83f8 	ldmia.w	sp!, {r3, r4, r5, r6, r7, r8, r9, pc}
				pxQueue->cTxLock = ( int8_t ) ( cTxLock + 1 );
 8002310:	3501      	adds	r5, #1
 8002312:	b26d      	sxtb	r5, r5
 8002314:	f884 5045 	strb.w	r5, [r4, #69]	@ 0x45
 8002318:	e7f5      	b.n	8002306 <xQueueGenericSendFromISR+0xa0>
			xReturn = errQUEUE_FULL;
 800231a:	2000      	movs	r0, #0
 800231c:	e7f4      	b.n	8002308 <xQueueGenericSendFromISR+0xa2>

0800231e <xQueueReceive>:
{
 800231e:	e92d 41ff 	stmdb	sp!, {r0, r1, r2, r3, r4, r5, r6, r7, r8, lr}
 8002322:	460e      	mov	r6, r1
	configASSERT( ( pxQueue ) );
 8002324:	4604      	mov	r4, r0
{
 8002326:	9201      	str	r2, [sp, #4]
	configASSERT( ( pxQueue ) );
 8002328:	b940      	cbnz	r0, 800233c <xQueueReceive+0x1e>
	__asm volatile
 800232a:	f04f 0350 	mov.w	r3, #80	@ 0x50
 800232e:	f383 8811 	msr	BASEPRI, r3
 8002332:	f3bf 8f6f 	isb	sy
 8002336:	f3bf 8f4f 	dsb	sy
 800233a:	e7fe      	b.n	800233a <xQueueReceive+0x1c>
	configASSERT( !( ( ( pvBuffer ) == NULL ) && ( ( pxQueue )->uxItemSize != ( UBaseType_t ) 0U ) ) );
 800233c:	b951      	cbnz	r1, 8002354 <xQueueReceive+0x36>
 800233e:	6c03      	ldr	r3, [r0, #64]	@ 0x40
 8002340:	b143      	cbz	r3, 8002354 <xQueueReceive+0x36>
 8002342:	f04f 0350 	mov.w	r3, #80	@ 0x50
 8002346:	f383 8811 	msr	BASEPRI, r3
 800234a:	f3bf 8f6f 	isb	sy
 800234e:	f3bf 8f4f 	dsb	sy
 8002352:	e7fe      	b.n	8002352 <xQueueReceive+0x34>
		configASSERT( !( ( xTaskGetSchedulerState() == taskSCHEDULER_SUSPENDED ) && ( xTicksToWait != 0 ) ) );
 8002354:	f000 fd56 	bl	8002e04 <xTaskGetSchedulerState>
 8002358:	4605      	mov	r5, r0
 800235a:	b318      	cbz	r0, 80023a4 <xQueueReceive+0x86>
 800235c:	2500      	movs	r5, #0
		prvLockQueue( pxQueue );
 800235e:	f04f 0800 	mov.w	r8, #0
		taskENTER_CRITICAL();
 8002362:	f001 f84f 	bl	8003404 <vPortEnterCritical>
			const UBaseType_t uxMessagesWaiting = pxQueue->uxMessagesWaiting;
 8002366:	6ba7      	ldr	r7, [r4, #56]	@ 0x38
			if( uxMessagesWaiting > ( UBaseType_t ) 0 )
 8002368:	b347      	cbz	r7, 80023bc <xQueueReceive+0x9e>
				prvCopyDataFromQueue( pxQueue, pvBuffer );
 800236a:	4631      	mov	r1, r6
 800236c:	4620      	mov	r0, r4
				pxQueue->uxMessagesWaiting = uxMessagesWaiting - ( UBaseType_t ) 1;
 800236e:	3f01      	subs	r7, #1
				prvCopyDataFromQueue( pxQueue, pvBuffer );
 8002370:	f7ff fdcf 	bl	8001f12 <prvCopyDataFromQueue>
				pxQueue->uxMessagesWaiting = uxMessagesWaiting - ( UBaseType_t ) 1;
 8002374:	63a7      	str	r7, [r4, #56]	@ 0x38
				if( listLIST_IS_EMPTY( &( pxQueue->xTasksWaitingToSend ) ) == pdFALSE )
 8002376:	6923      	ldr	r3, [r4, #16]
 8002378:	b173      	cbz	r3, 8002398 <xQueueReceive+0x7a>
					if( xTaskRemoveFromEventList( &( pxQueue->xTasksWaitingToSend ) ) != pdFALSE )
 800237a:	f104 0010 	add.w	r0, r4, #16
 800237e:	f000 fcb1 	bl	8002ce4 <xTaskRemoveFromEventList>
 8002382:	b148      	cbz	r0, 8002398 <xQueueReceive+0x7a>
						queueYIELD_IF_USING_PREEMPTION();
 8002384:	f04f 23e0 	mov.w	r3, #3758153728	@ 0xe000e000
 8002388:	f04f 5280 	mov.w	r2, #268435456	@ 0x10000000
 800238c:	f8c3 2d04 	str.w	r2, [r3, #3332]	@ 0xd04
 8002390:	f3bf 8f4f 	dsb	sy
 8002394:	f3bf 8f6f 	isb	sy
				taskEXIT_CRITICAL();
 8002398:	f001 f854 	bl	8003444 <vPortExitCritical>
				return pdPASS;
 800239c:	2001      	movs	r0, #1
}
 800239e:	b004      	add	sp, #16
 80023a0:	e8bd 81f0 	ldmia.w	sp!, {r4, r5, r6, r7, r8, pc}
		configASSERT( !( ( xTaskGetSchedulerState() == taskSCHEDULER_SUSPENDED ) && ( xTicksToWait != 0 ) ) );
 80023a4:	9b01      	ldr	r3, [sp, #4]
 80023a6:	2b00      	cmp	r3, #0
 80023a8:	d0d9      	beq.n	800235e <xQueueReceive+0x40>
 80023aa:	f04f 0350 	mov.w	r3, #80	@ 0x50
 80023ae:	f383 8811 	msr	BASEPRI, r3
 80023b2:	f3bf 8f6f 	isb	sy
 80023b6:	f3bf 8f4f 	dsb	sy
 80023ba:	e7fe      	b.n	80023ba <xQueueReceive+0x9c>
				if( xTicksToWait == ( TickType_t ) 0 )
 80023bc:	9b01      	ldr	r3, [sp, #4]
 80023be:	b91b      	cbnz	r3, 80023c8 <xQueueReceive+0xaa>
					taskEXIT_CRITICAL();
 80023c0:	f001 f840 	bl	8003444 <vPortExitCritical>
					return errQUEUE_EMPTY;
 80023c4:	2000      	movs	r0, #0
 80023c6:	e7ea      	b.n	800239e <xQueueReceive+0x80>
				else if( xEntryTimeSet == pdFALSE )
 80023c8:	b915      	cbnz	r5, 80023d0 <xQueueReceive+0xb2>
					vTaskInternalSetTimeOutState( &xTimeOut );
 80023ca:	a802      	add	r0, sp, #8
 80023cc:	f000 fccc 	bl	8002d68 <vTaskInternalSetTimeOutState>
		taskEXIT_CRITICAL();
 80023d0:	f001 f838 	bl	8003444 <vPortExitCritical>
		vTaskSuspendAll();
 80023d4:	f000 fad0 	bl	8002978 <vTaskSuspendAll>
		prvLockQueue( pxQueue );
 80023d8:	f001 f814 	bl	8003404 <vPortEnterCritical>
 80023dc:	f894 3044 	ldrb.w	r3, [r4, #68]	@ 0x44
 80023e0:	2bff      	cmp	r3, #255	@ 0xff
 80023e2:	bf08      	it	eq
 80023e4:	f884 8044 	strbeq.w	r8, [r4, #68]	@ 0x44
 80023e8:	f894 3045 	ldrb.w	r3, [r4, #69]	@ 0x45
 80023ec:	2bff      	cmp	r3, #255	@ 0xff
 80023ee:	bf08      	it	eq
 80023f0:	f884 8045 	strbeq.w	r8, [r4, #69]	@ 0x45
 80023f4:	f001 f826 	bl	8003444 <vPortExitCritical>
		if( xTaskCheckForTimeOut( &xTimeOut, &xTicksToWait ) == pdFALSE )
 80023f8:	a901      	add	r1, sp, #4
 80023fa:	a802      	add	r0, sp, #8
 80023fc:	f000 fcc0 	bl	8002d80 <xTaskCheckForTimeOut>
 8002400:	bb00      	cbnz	r0, 8002444 <xQueueReceive+0x126>
			if( prvIsQueueEmpty( pxQueue ) != pdFALSE )
 8002402:	4620      	mov	r0, r4
 8002404:	f7ff fd47 	bl	8001e96 <prvIsQueueEmpty>
 8002408:	b1b0      	cbz	r0, 8002438 <xQueueReceive+0x11a>
				vTaskPlaceOnEventList( &( pxQueue->xTasksWaitingToReceive ), xTicksToWait );
 800240a:	9901      	ldr	r1, [sp, #4]
 800240c:	f104 0024 	add.w	r0, r4, #36	@ 0x24
 8002410:	f000 fc2e 	bl	8002c70 <vTaskPlaceOnEventList>
				prvUnlockQueue( pxQueue );
 8002414:	4620      	mov	r0, r4
 8002416:	f7ff fd90 	bl	8001f3a <prvUnlockQueue>
				if( xTaskResumeAll() == pdFALSE )
 800241a:	f000 fb55 	bl	8002ac8 <xTaskResumeAll>
 800241e:	b948      	cbnz	r0, 8002434 <xQueueReceive+0x116>
					portYIELD_WITHIN_API();
 8002420:	f04f 23e0 	mov.w	r3, #3758153728	@ 0xe000e000
 8002424:	f04f 5280 	mov.w	r2, #268435456	@ 0x10000000
 8002428:	f8c3 2d04 	str.w	r2, [r3, #3332]	@ 0xd04
 800242c:	f3bf 8f4f 	dsb	sy
 8002430:	f3bf 8f6f 	isb	sy
 8002434:	2501      	movs	r5, #1
 8002436:	e794      	b.n	8002362 <xQueueReceive+0x44>
				prvUnlockQueue( pxQueue );
 8002438:	4620      	mov	r0, r4
 800243a:	f7ff fd7e 	bl	8001f3a <prvUnlockQueue>
				( void ) xTaskResumeAll();
 800243e:	f000 fb43 	bl	8002ac8 <xTaskResumeAll>
 8002442:	e7f7      	b.n	8002434 <xQueueReceive+0x116>
			prvUnlockQueue( pxQueue );
 8002444:	4620      	mov	r0, r4
 8002446:	f7ff fd78 	bl	8001f3a <prvUnlockQueue>
			( void ) xTaskResumeAll();
 800244a:	f000 fb3d 	bl	8002ac8 <xTaskResumeAll>
			if( prvIsQueueEmpty( pxQueue ) != pdFALSE )
 800244e:	4620      	mov	r0, r4
 8002450:	f7ff fd21 	bl	8001e96 <prvIsQueueEmpty>
 8002454:	2800      	cmp	r0, #0
 8002456:	d0ed      	beq.n	8002434 <xQueueReceive+0x116>
 8002458:	e7b4      	b.n	80023c4 <xQueueReceive+0xa6>

0800245a <xQueueReceiveFromISR>:
{
 800245a:	e92d 43f8 	stmdb	sp!, {r3, r4, r5, r6, r7, r8, r9, lr}
 800245e:	4689      	mov	r9, r1
 8002460:	4690      	mov	r8, r2
	configASSERT( pxQueue );
 8002462:	4604      	mov	r4, r0
 8002464:	b940      	cbnz	r0, 8002478 <xQueueReceiveFromISR+0x1e>
 8002466:	f04f 0350 	mov.w	r3, #80	@ 0x50
 800246a:	f383 8811 	msr	BASEPRI, r3
 800246e:	f3bf 8f6f 	isb	sy
 8002472:	f3bf 8f4f 	dsb	sy
 8002476:	e7fe      	b.n	8002476 <xQueueReceiveFromISR+0x1c>
	configASSERT( !( ( pvBuffer == NULL ) && ( pxQueue->uxItemSize != ( UBaseType_t ) 0U ) ) );
 8002478:	b951      	cbnz	r1, 8002490 <xQueueReceiveFromISR+0x36>
 800247a:	6c03      	ldr	r3, [r0, #64]	@ 0x40
 800247c:	b143      	cbz	r3, 8002490 <xQueueReceiveFromISR+0x36>
 800247e:	f04f 0350 	mov.w	r3, #80	@ 0x50
 8002482:	f383 8811 	msr	BASEPRI, r3
 8002486:	f3bf 8f6f 	isb	sy
 800248a:	f3bf 8f4f 	dsb	sy
 800248e:	e7fe      	b.n	800248e <xQueueReceiveFromISR+0x34>
	portASSERT_IF_INTERRUPT_PRIORITY_INVALID();
 8002490:	f001 f890 	bl	80035b4 <vPortValidateInterruptPriority>
	__asm volatile
 8002494:	f3ef 8711 	mrs	r7, BASEPRI
 8002498:	f04f 0350 	mov.w	r3, #80	@ 0x50
 800249c:	f383 8811 	msr	BASEPRI, r3
 80024a0:	f3bf 8f6f 	isb	sy
 80024a4:	f3bf 8f4f 	dsb	sy
		const UBaseType_t uxMessagesWaiting = pxQueue->uxMessagesWaiting;
 80024a8:	6ba5      	ldr	r5, [r4, #56]	@ 0x38
		if( uxMessagesWaiting > ( UBaseType_t ) 0 )
 80024aa:	b30d      	cbz	r5, 80024f0 <xQueueReceiveFromISR+0x96>
			const int8_t cRxLock = pxQueue->cRxLock;
 80024ac:	f894 6044 	ldrb.w	r6, [r4, #68]	@ 0x44
			prvCopyDataFromQueue( pxQueue, pvBuffer );
 80024b0:	4649      	mov	r1, r9
 80024b2:	4620      	mov	r0, r4
			const int8_t cRxLock = pxQueue->cRxLock;
 80024b4:	b276      	sxtb	r6, r6
			prvCopyDataFromQueue( pxQueue, pvBuffer );
 80024b6:	f7ff fd2c 	bl	8001f12 <prvCopyDataFromQueue>
			pxQueue->uxMessagesWaiting = uxMessagesWaiting - ( UBaseType_t ) 1;
 80024ba:	3d01      	subs	r5, #1
			if( cRxLock == queueUNLOCKED )
 80024bc:	1c73      	adds	r3, r6, #1
			pxQueue->uxMessagesWaiting = uxMessagesWaiting - ( UBaseType_t ) 1;
 80024be:	63a5      	str	r5, [r4, #56]	@ 0x38
			if( cRxLock == queueUNLOCKED )
 80024c0:	d111      	bne.n	80024e6 <xQueueReceiveFromISR+0x8c>
				if( listLIST_IS_EMPTY( &( pxQueue->xTasksWaitingToSend ) ) == pdFALSE )
 80024c2:	6923      	ldr	r3, [r4, #16]
 80024c4:	b153      	cbz	r3, 80024dc <xQueueReceiveFromISR+0x82>
					if( xTaskRemoveFromEventList( &( pxQueue->xTasksWaitingToSend ) ) != pdFALSE )
 80024c6:	f104 0010 	add.w	r0, r4, #16
 80024ca:	f000 fc0b 	bl	8002ce4 <xTaskRemoveFromEventList>
 80024ce:	b128      	cbz	r0, 80024dc <xQueueReceiveFromISR+0x82>
						if( pxHigherPriorityTaskWoken != NULL )
 80024d0:	f1b8 0f00 	cmp.w	r8, #0
 80024d4:	d002      	beq.n	80024dc <xQueueReceiveFromISR+0x82>
							*pxHigherPriorityTaskWoken = pdTRUE;
 80024d6:	2301      	movs	r3, #1
 80024d8:	f8c8 3000 	str.w	r3, [r8]
			xReturn = pdPASS;
 80024dc:	2001      	movs	r0, #1
	__asm volatile
 80024de:	f387 8811 	msr	BASEPRI, r7
}
 80024e2:	e8bd 83f8 	ldmia.w	sp!, {r3, r4, r5, r6, r7, r8, r9, pc}
				pxQueue->cRxLock = ( int8_t ) ( cRxLock + 1 );
 80024e6:	3601      	adds	r6, #1
 80024e8:	b276      	sxtb	r6, r6
 80024ea:	f884 6044 	strb.w	r6, [r4, #68]	@ 0x44
 80024ee:	e7f5      	b.n	80024dc <xQueueReceiveFromISR+0x82>
			xReturn = pdFAIL;
 80024f0:	4628      	mov	r0, r5
 80024f2:	e7f4      	b.n	80024de <xQueueReceiveFromISR+0x84>

080024f4 <vQueueAddToRegistry>:
	{
	UBaseType_t ux;

		/* See if there is an empty space in the registry.  A NULL name denotes
		a free slot. */
		for( ux = ( UBaseType_t ) 0U; ux < ( UBaseType_t ) configQUEUE_REGISTRY_SIZE; ux++ )
 80024f4:	2300      	movs	r3, #0
	{
 80024f6:	b530      	push	{r4, r5, lr}
		{
			if( xQueueRegistry[ ux ].pcQueueName == NULL )
 80024f8:	4a06      	ldr	r2, [pc, #24]	@ (8002514 <vQueueAddToRegistry+0x20>)
 80024fa:	f852 5033 	ldr.w	r5, [r2, r3, lsl #3]
 80024fe:	eb02 04c3 	add.w	r4, r2, r3, lsl #3
 8002502:	b91d      	cbnz	r5, 800250c <vQueueAddToRegistry+0x18>
			{
				/* Store the information on this queue. */
				xQueueRegistry[ ux ].pcQueueName = pcQueueName;
 8002504:	f842 1033 	str.w	r1, [r2, r3, lsl #3]
				xQueueRegistry[ ux ].xHandle = xQueue;
 8002508:	6060      	str	r0, [r4, #4]
			else
			{
				mtCOVERAGE_TEST_MARKER();
			}
		}
	}
 800250a:	bd30      	pop	{r4, r5, pc}
		for( ux = ( UBaseType_t ) 0U; ux < ( UBaseType_t ) configQUEUE_REGISTRY_SIZE; ux++ )
 800250c:	3301      	adds	r3, #1
 800250e:	2b08      	cmp	r3, #8
 8002510:	d1f3      	bne.n	80024fa <vQueueAddToRegistry+0x6>
 8002512:	e7fa      	b.n	800250a <vQueueAddToRegistry+0x16>
 8002514:	20000ba4 	.word	0x20000ba4

08002518 <vQueueWaitForMessageRestricted>:
/*-----------------------------------------------------------*/

#if ( configUSE_TIMERS == 1 )

	void vQueueWaitForMessageRestricted( QueueHandle_t xQueue, TickType_t xTicksToWait, const BaseType_t xWaitIndefinitely )
	{
 8002518:	b570      	push	{r4, r5, r6, lr}
 800251a:	4604      	mov	r4, r0
 800251c:	460d      	mov	r5, r1
 800251e:	4616      	mov	r6, r2
		will not actually cause the task to block, just place it on a blocked
		list.  It will not block until the scheduler is unlocked - at which
		time a yield will be performed.  If an item is added to the queue while
		the queue is locked, and the calling task blocks on the queue, then the
		calling task will be immediately unblocked when the queue is unlocked. */
		prvLockQueue( pxQueue );
 8002520:	f000 ff70 	bl	8003404 <vPortEnterCritical>
 8002524:	f894 3044 	ldrb.w	r3, [r4, #68]	@ 0x44
 8002528:	2bff      	cmp	r3, #255	@ 0xff
 800252a:	bf04      	itt	eq
 800252c:	2300      	moveq	r3, #0
 800252e:	f884 3044 	strbeq.w	r3, [r4, #68]	@ 0x44
 8002532:	f894 3045 	ldrb.w	r3, [r4, #69]	@ 0x45
 8002536:	2bff      	cmp	r3, #255	@ 0xff
 8002538:	bf04      	itt	eq
 800253a:	2300      	moveq	r3, #0
 800253c:	f884 3045 	strbeq.w	r3, [r4, #69]	@ 0x45
 8002540:	f000 ff80 	bl	8003444 <vPortExitCritical>
		if( pxQueue->uxMessagesWaiting == ( UBaseType_t ) 0U )
 8002544:	6ba3      	ldr	r3, [r4, #56]	@ 0x38
 8002546:	b92b      	cbnz	r3, 8002554 <vQueueWaitForMessageRestricted+0x3c>
		{
			/* There is nothing in the queue, block for the specified period. */
			vTaskPlaceOnEventListRestricted( &( pxQueue->xTasksWaitingToReceive ), xTicksToWait, xWaitIndefinitely );
 8002548:	4632      	mov	r2, r6
 800254a:	4629      	mov	r1, r5
 800254c:	f104 0024 	add.w	r0, r4, #36	@ 0x24
 8002550:	f000 fba8 	bl	8002ca4 <vTaskPlaceOnEventListRestricted>
		}
		else
		{
			mtCOVERAGE_TEST_MARKER();
		}
		prvUnlockQueue( pxQueue );
 8002554:	4620      	mov	r0, r4
	}
 8002556:	e8bd 4070 	ldmia.w	sp!, {r4, r5, r6, lr}
		prvUnlockQueue( pxQueue );
 800255a:	f7ff bcee 	b.w	8001f3a <prvUnlockQueue>
	...

08002560 <prvAddNewTaskToReadyList>:
	}
}
/*-----------------------------------------------------------*/

static void prvAddNewTaskToReadyList( TCB_t *pxNewTCB )
{
 8002560:	e92d 41f0 	stmdb	sp!, {r4, r5, r6, r7, r8, lr}
 8002564:	4604      	mov	r4, r0
	/* Ensure interrupts don't access the task lists while the lists are being
	updated. */
	taskENTER_CRITICAL();
 8002566:	f000 ff4d 	bl	8003404 <vPortEnterCritical>
	{
		uxCurrentNumberOfTasks++;
 800256a:	4b2f      	ldr	r3, [pc, #188]	@ (8002628 <prvAddNewTaskToReadyList+0xc8>)
		if( pxCurrentTCB == NULL )
 800256c:	4e2f      	ldr	r6, [pc, #188]	@ (800262c <prvAddNewTaskToReadyList+0xcc>)
		uxCurrentNumberOfTasks++;
 800256e:	681a      	ldr	r2, [r3, #0]
 8002570:	4f2f      	ldr	r7, [pc, #188]	@ (8002630 <prvAddNewTaskToReadyList+0xd0>)
 8002572:	3201      	adds	r2, #1
 8002574:	601a      	str	r2, [r3, #0]
		if( pxCurrentTCB == NULL )
 8002576:	6835      	ldr	r5, [r6, #0]
 8002578:	2d00      	cmp	r5, #0
 800257a:	d14a      	bne.n	8002612 <prvAddNewTaskToReadyList+0xb2>
		{
			/* There are no other tasks, or all the other tasks are in
			the suspended state - make this the current task. */
			pxCurrentTCB = pxNewTCB;
 800257c:	6034      	str	r4, [r6, #0]

			if( uxCurrentNumberOfTasks == ( UBaseType_t ) 1 )
 800257e:	681b      	ldr	r3, [r3, #0]
 8002580:	2b01      	cmp	r3, #1
 8002582:	d11f      	bne.n	80025c4 <prvAddNewTaskToReadyList+0x64>
 8002584:	46b8      	mov	r8, r7
{
UBaseType_t uxPriority;

	for( uxPriority = ( UBaseType_t ) 0U; uxPriority < ( UBaseType_t ) configMAX_PRIORITIES; uxPriority++ )
	{
		vListInitialise( &( pxReadyTasksLists[ uxPriority ] ) );
 8002586:	4640      	mov	r0, r8
	for( uxPriority = ( UBaseType_t ) 0U; uxPriority < ( UBaseType_t ) configMAX_PRIORITIES; uxPriority++ )
 8002588:	3501      	adds	r5, #1
		vListInitialise( &( pxReadyTasksLists[ uxPriority ] ) );
 800258a:	f7ff fc44 	bl	8001e16 <vListInitialise>
	for( uxPriority = ( UBaseType_t ) 0U; uxPriority < ( UBaseType_t ) configMAX_PRIORITIES; uxPriority++ )
 800258e:	2d07      	cmp	r5, #7
 8002590:	f108 0814 	add.w	r8, r8, #20
 8002594:	d1f7      	bne.n	8002586 <prvAddNewTaskToReadyList+0x26>
	}

	vListInitialise( &xDelayedTaskList1 );
 8002596:	f8df 809c 	ldr.w	r8, [pc, #156]	@ 8002634 <prvAddNewTaskToReadyList+0xd4>
	vListInitialise( &xDelayedTaskList2 );
 800259a:	4d27      	ldr	r5, [pc, #156]	@ (8002638 <prvAddNewTaskToReadyList+0xd8>)
	vListInitialise( &xDelayedTaskList1 );
 800259c:	4640      	mov	r0, r8
 800259e:	f7ff fc3a 	bl	8001e16 <vListInitialise>
	vListInitialise( &xDelayedTaskList2 );
 80025a2:	4628      	mov	r0, r5
 80025a4:	f7ff fc37 	bl	8001e16 <vListInitialise>
	vListInitialise( &xPendingReadyList );
 80025a8:	4824      	ldr	r0, [pc, #144]	@ (800263c <prvAddNewTaskToReadyList+0xdc>)
 80025aa:	f7ff fc34 	bl	8001e16 <vListInitialise>

	#if ( INCLUDE_vTaskDelete == 1 )
	{
		vListInitialise( &xTasksWaitingTermination );
 80025ae:	4824      	ldr	r0, [pc, #144]	@ (8002640 <prvAddNewTaskToReadyList+0xe0>)
 80025b0:	f7ff fc31 	bl	8001e16 <vListInitialise>
	}
	#endif /* INCLUDE_vTaskDelete */

	#if ( INCLUDE_vTaskSuspend == 1 )
	{
		vListInitialise( &xSuspendedTaskList );
 80025b4:	4823      	ldr	r0, [pc, #140]	@ (8002644 <prvAddNewTaskToReadyList+0xe4>)
 80025b6:	f7ff fc2e 	bl	8001e16 <vListInitialise>
	}
	#endif /* INCLUDE_vTaskSuspend */

	/* Start with pxDelayedTaskList using list1 and the pxOverflowDelayedTaskList
	using list2. */
	pxDelayedTaskList = &xDelayedTaskList1;
 80025ba:	4b23      	ldr	r3, [pc, #140]	@ (8002648 <prvAddNewTaskToReadyList+0xe8>)
 80025bc:	f8c3 8000 	str.w	r8, [r3]
	pxOverflowDelayedTaskList = &xDelayedTaskList2;
 80025c0:	4b22      	ldr	r3, [pc, #136]	@ (800264c <prvAddNewTaskToReadyList+0xec>)
 80025c2:	601d      	str	r5, [r3, #0]
		uxTaskNumber++;
 80025c4:	4a22      	ldr	r2, [pc, #136]	@ (8002650 <prvAddNewTaskToReadyList+0xf0>)
		prvAddTaskToReadyList( pxNewTCB );
 80025c6:	4923      	ldr	r1, [pc, #140]	@ (8002654 <prvAddNewTaskToReadyList+0xf4>)
		uxTaskNumber++;
 80025c8:	6813      	ldr	r3, [r2, #0]
		prvAddTaskToReadyList( pxNewTCB );
 80025ca:	6808      	ldr	r0, [r1, #0]
		uxTaskNumber++;
 80025cc:	3301      	adds	r3, #1
 80025ce:	6013      	str	r3, [r2, #0]
		prvAddTaskToReadyList( pxNewTCB );
 80025d0:	2301      	movs	r3, #1
 80025d2:	6ae2      	ldr	r2, [r4, #44]	@ 0x2c
 80025d4:	4093      	lsls	r3, r2
 80025d6:	4303      	orrs	r3, r0
 80025d8:	2014      	movs	r0, #20
 80025da:	600b      	str	r3, [r1, #0]
 80025dc:	fb00 7002 	mla	r0, r0, r2, r7
 80025e0:	1d21      	adds	r1, r4, #4
 80025e2:	f7ff fc26 	bl	8001e32 <vListInsertEnd>
	taskEXIT_CRITICAL();
 80025e6:	f000 ff2d 	bl	8003444 <vPortExitCritical>
	if( xSchedulerRunning != pdFALSE )
 80025ea:	4b1b      	ldr	r3, [pc, #108]	@ (8002658 <prvAddNewTaskToReadyList+0xf8>)
 80025ec:	681b      	ldr	r3, [r3, #0]
 80025ee:	b173      	cbz	r3, 800260e <prvAddNewTaskToReadyList+0xae>
		if( pxCurrentTCB->uxPriority < pxNewTCB->uxPriority )
 80025f0:	6833      	ldr	r3, [r6, #0]
 80025f2:	6ada      	ldr	r2, [r3, #44]	@ 0x2c
 80025f4:	6ae3      	ldr	r3, [r4, #44]	@ 0x2c
 80025f6:	429a      	cmp	r2, r3
 80025f8:	d209      	bcs.n	800260e <prvAddNewTaskToReadyList+0xae>
			taskYIELD_IF_USING_PREEMPTION();
 80025fa:	f04f 23e0 	mov.w	r3, #3758153728	@ 0xe000e000
 80025fe:	f04f 5280 	mov.w	r2, #268435456	@ 0x10000000
 8002602:	f8c3 2d04 	str.w	r2, [r3, #3332]	@ 0xd04
 8002606:	f3bf 8f4f 	dsb	sy
 800260a:	f3bf 8f6f 	isb	sy
}
 800260e:	e8bd 81f0 	ldmia.w	sp!, {r4, r5, r6, r7, r8, pc}
			if( xSchedulerRunning == pdFALSE )
 8002612:	4b11      	ldr	r3, [pc, #68]	@ (8002658 <prvAddNewTaskToReadyList+0xf8>)
 8002614:	681a      	ldr	r2, [r3, #0]
				if( pxCurrentTCB->uxPriority <= pxNewTCB->uxPriority )
 8002616:	6ae3      	ldr	r3, [r4, #44]	@ 0x2c
			if( xSchedulerRunning == pdFALSE )
 8002618:	2a00      	cmp	r2, #0
 800261a:	d1d3      	bne.n	80025c4 <prvAddNewTaskToReadyList+0x64>
				if( pxCurrentTCB->uxPriority <= pxNewTCB->uxPriority )
 800261c:	6832      	ldr	r2, [r6, #0]
 800261e:	6ad2      	ldr	r2, [r2, #44]	@ 0x2c
 8002620:	429a      	cmp	r2, r3
					pxCurrentTCB = pxNewTCB;
 8002622:	bf98      	it	ls
 8002624:	6034      	strls	r4, [r6, #0]
 8002626:	e7cd      	b.n	80025c4 <prvAddNewTaskToReadyList+0x64>
 8002628:	20000c08 	.word	0x20000c08
 800262c:	20000d08 	.word	0x20000d08
 8002630:	20000c7c 	.word	0x20000c7c
 8002634:	20000c68 	.word	0x20000c68
 8002638:	20000c54 	.word	0x20000c54
 800263c:	20000c38 	.word	0x20000c38
 8002640:	20000c24 	.word	0x20000c24
 8002644:	20000c0c 	.word	0x20000c0c
 8002648:	20000c50 	.word	0x20000c50
 800264c:	20000c4c 	.word	0x20000c4c
 8002650:	20000bec 	.word	0x20000bec
 8002654:	20000c00 	.word	0x20000c00
 8002658:	20000bfc 	.word	0x20000bfc

0800265c <prvAddCurrentTaskToDelayedList>:
#endif /* configUSE_TASK_NOTIFICATIONS */
/*-----------------------------------------------------------*/


static void prvAddCurrentTaskToDelayedList( TickType_t xTicksToWait, const BaseType_t xCanBlockIndefinitely )
{
 800265c:	b5f8      	push	{r3, r4, r5, r6, r7, lr}
TickType_t xTimeToWake;
const TickType_t xConstTickCount = xTickCount;
 800265e:	4b1a      	ldr	r3, [pc, #104]	@ (80026c8 <prvAddCurrentTaskToDelayedList+0x6c>)
	}
	#endif

	/* Remove the task from the ready list before adding it to the blocked list
	as the same list item is used for both lists. */
	if( uxListRemove( &( pxCurrentTCB->xStateListItem ) ) == ( UBaseType_t ) 0 )
 8002660:	4d1a      	ldr	r5, [pc, #104]	@ (80026cc <prvAddCurrentTaskToDelayedList+0x70>)
{
 8002662:	4606      	mov	r6, r0
const TickType_t xConstTickCount = xTickCount;
 8002664:	681c      	ldr	r4, [r3, #0]
	if( uxListRemove( &( pxCurrentTCB->xStateListItem ) ) == ( UBaseType_t ) 0 )
 8002666:	6828      	ldr	r0, [r5, #0]
{
 8002668:	460f      	mov	r7, r1
	if( uxListRemove( &( pxCurrentTCB->xStateListItem ) ) == ( UBaseType_t ) 0 )
 800266a:	3004      	adds	r0, #4
 800266c:	f7ff fc03 	bl	8001e76 <uxListRemove>
 8002670:	b940      	cbnz	r0, 8002684 <prvAddCurrentTaskToDelayedList+0x28>
	{
		/* The current task must be in a ready list, so there is no need to
		check, and the port reset macro can be called directly. */
		portRESET_READY_PRIORITY( pxCurrentTCB->uxPriority, uxTopReadyPriority );
 8002672:	682a      	ldr	r2, [r5, #0]
 8002674:	4916      	ldr	r1, [pc, #88]	@ (80026d0 <prvAddCurrentTaskToDelayedList+0x74>)
 8002676:	6ad0      	ldr	r0, [r2, #44]	@ 0x2c
 8002678:	2201      	movs	r2, #1
 800267a:	680b      	ldr	r3, [r1, #0]
 800267c:	4082      	lsls	r2, r0
 800267e:	ea23 0302 	bic.w	r3, r3, r2
 8002682:	600b      	str	r3, [r1, #0]
		mtCOVERAGE_TEST_MARKER();
	}

	#if ( INCLUDE_vTaskSuspend == 1 )
	{
		if( ( xTicksToWait == portMAX_DELAY ) && ( xCanBlockIndefinitely != pdFALSE ) )
 8002684:	1c73      	adds	r3, r6, #1
 8002686:	d107      	bne.n	8002698 <prvAddCurrentTaskToDelayedList+0x3c>
 8002688:	b137      	cbz	r7, 8002698 <prvAddCurrentTaskToDelayedList+0x3c>
		{
			/* Add the task to the suspended task list instead of a delayed task
			list to ensure it is not woken by a timing event.  It will block
			indefinitely. */
			vListInsertEnd( &xSuspendedTaskList, &( pxCurrentTCB->xStateListItem ) );
 800268a:	6829      	ldr	r1, [r5, #0]
 800268c:	4811      	ldr	r0, [pc, #68]	@ (80026d4 <prvAddCurrentTaskToDelayedList+0x78>)
 800268e:	3104      	adds	r1, #4

		/* Avoid compiler warning when INCLUDE_vTaskSuspend is not 1. */
		( void ) xCanBlockIndefinitely;
	}
	#endif /* INCLUDE_vTaskSuspend */
}
 8002690:	e8bd 40f8 	ldmia.w	sp!, {r3, r4, r5, r6, r7, lr}
			vListInsertEnd( &xSuspendedTaskList, &( pxCurrentTCB->xStateListItem ) );
 8002694:	f7ff bbcd 	b.w	8001e32 <vListInsertEnd>
			listSET_LIST_ITEM_VALUE( &( pxCurrentTCB->xStateListItem ), xTimeToWake );
 8002698:	682b      	ldr	r3, [r5, #0]
 800269a:	19a4      	adds	r4, r4, r6
 800269c:	605c      	str	r4, [r3, #4]
			if( xTimeToWake < xConstTickCount )
 800269e:	d307      	bcc.n	80026b0 <prvAddCurrentTaskToDelayedList+0x54>
				vListInsert( pxOverflowDelayedTaskList, &( pxCurrentTCB->xStateListItem ) );
 80026a0:	4b0d      	ldr	r3, [pc, #52]	@ (80026d8 <prvAddCurrentTaskToDelayedList+0x7c>)
 80026a2:	6818      	ldr	r0, [r3, #0]
 80026a4:	6829      	ldr	r1, [r5, #0]
}
 80026a6:	e8bd 40f8 	ldmia.w	sp!, {r3, r4, r5, r6, r7, lr}
				vListInsert( pxOverflowDelayedTaskList, &( pxCurrentTCB->xStateListItem ) );
 80026aa:	3104      	adds	r1, #4
 80026ac:	f7ff bbcc 	b.w	8001e48 <vListInsert>
				vListInsert( pxDelayedTaskList, &( pxCurrentTCB->xStateListItem ) );
 80026b0:	4b0a      	ldr	r3, [pc, #40]	@ (80026dc <prvAddCurrentTaskToDelayedList+0x80>)
 80026b2:	6818      	ldr	r0, [r3, #0]
 80026b4:	6829      	ldr	r1, [r5, #0]
 80026b6:	3104      	adds	r1, #4
 80026b8:	f7ff fbc6 	bl	8001e48 <vListInsert>
				if( xTimeToWake < xNextTaskUnblockTime )
 80026bc:	4b08      	ldr	r3, [pc, #32]	@ (80026e0 <prvAddCurrentTaskToDelayedList+0x84>)
 80026be:	681a      	ldr	r2, [r3, #0]
 80026c0:	42a2      	cmp	r2, r4
					xNextTaskUnblockTime = xTimeToWake;
 80026c2:	bf88      	it	hi
 80026c4:	601c      	strhi	r4, [r3, #0]
}
 80026c6:	bdf8      	pop	{r3, r4, r5, r6, r7, pc}
 80026c8:	20000c04 	.word	0x20000c04
 80026cc:	20000d08 	.word	0x20000d08
 80026d0:	20000c00 	.word	0x20000c00
 80026d4:	20000c0c 	.word	0x20000c0c
 80026d8:	20000c4c 	.word	0x20000c4c
 80026dc:	20000c50 	.word	0x20000c50
 80026e0:	20000be8 	.word	0x20000be8

080026e4 <prvResetNextTaskUnblockTime>:
	if( listLIST_IS_EMPTY( pxDelayedTaskList ) != pdFALSE )
 80026e4:	4a06      	ldr	r2, [pc, #24]	@ (8002700 <prvResetNextTaskUnblockTime+0x1c>)
 80026e6:	6813      	ldr	r3, [r2, #0]
 80026e8:	6819      	ldr	r1, [r3, #0]
 80026ea:	4b06      	ldr	r3, [pc, #24]	@ (8002704 <prvResetNextTaskUnblockTime+0x20>)
 80026ec:	b919      	cbnz	r1, 80026f6 <prvResetNextTaskUnblockTime+0x12>
		xNextTaskUnblockTime = portMAX_DELAY;
 80026ee:	f04f 32ff 	mov.w	r2, #4294967295
		xNextTaskUnblockTime = listGET_LIST_ITEM_VALUE( &( ( pxTCB )->xStateListItem ) );
 80026f2:	601a      	str	r2, [r3, #0]
}
 80026f4:	4770      	bx	lr
		( pxTCB ) = ( TCB_t * ) listGET_OWNER_OF_HEAD_ENTRY( pxDelayedTaskList );
 80026f6:	6812      	ldr	r2, [r2, #0]
 80026f8:	68d2      	ldr	r2, [r2, #12]
		xNextTaskUnblockTime = listGET_LIST_ITEM_VALUE( &( ( pxTCB )->xStateListItem ) );
 80026fa:	68d2      	ldr	r2, [r2, #12]
 80026fc:	6852      	ldr	r2, [r2, #4]
 80026fe:	e7f8      	b.n	80026f2 <prvResetNextTaskUnblockTime+0xe>
 8002700:	20000c50 	.word	0x20000c50
 8002704:	20000be8 	.word	0x20000be8

08002708 <prvDeleteTCB>:
	{
 8002708:	b510      	push	{r4, lr}
			if( pxTCB->ucStaticallyAllocated == tskDYNAMICALLY_ALLOCATED_STACK_AND_TCB )
 800270a:	f890 3051 	ldrb.w	r3, [r0, #81]	@ 0x51
	{
 800270e:	4604      	mov	r4, r0
			if( pxTCB->ucStaticallyAllocated == tskDYNAMICALLY_ALLOCATED_STACK_AND_TCB )
 8002710:	b93b      	cbnz	r3, 8002722 <prvDeleteTCB+0x1a>
				vPortFree( pxTCB->pxStack );
 8002712:	6b00      	ldr	r0, [r0, #48]	@ 0x30
 8002714:	f001 f834 	bl	8003780 <vPortFree>
				vPortFree( pxTCB );
 8002718:	4620      	mov	r0, r4
	}
 800271a:	e8bd 4010 	ldmia.w	sp!, {r4, lr}
				vPortFree( pxTCB );
 800271e:	f001 b82f 	b.w	8003780 <vPortFree>
			else if( pxTCB->ucStaticallyAllocated == tskSTATICALLY_ALLOCATED_STACK_ONLY )
 8002722:	2b01      	cmp	r3, #1
 8002724:	d0f9      	beq.n	800271a <prvDeleteTCB+0x12>
				configASSERT( pxTCB->ucStaticallyAllocated == tskSTATICALLY_ALLOCATED_STACK_AND_TCB	);
 8002726:	2b02      	cmp	r3, #2
 8002728:	d008      	beq.n	800273c <prvDeleteTCB+0x34>
	__asm volatile
 800272a:	f04f 0350 	mov.w	r3, #80	@ 0x50
 800272e:	f383 8811 	msr	BASEPRI, r3
 8002732:	f3bf 8f6f 	isb	sy
 8002736:	f3bf 8f4f 	dsb	sy
 800273a:	e7fe      	b.n	800273a <prvDeleteTCB+0x32>
	}
 800273c:	bd10      	pop	{r4, pc}
	...

08002740 <prvIdleTask>:
{
 8002740:	b580      	push	{r7, lr}
		while( uxDeletedTasksWaitingCleanUp > ( UBaseType_t ) 0U )
 8002742:	4c13      	ldr	r4, [pc, #76]	@ (8002790 <prvIdleTask+0x50>)
				pxTCB = ( TCB_t * ) listGET_OWNER_OF_HEAD_ENTRY( ( &xTasksWaitingTermination ) );
 8002744:	4f13      	ldr	r7, [pc, #76]	@ (8002794 <prvIdleTask+0x54>)
				--uxCurrentNumberOfTasks;
 8002746:	4d14      	ldr	r5, [pc, #80]	@ (8002798 <prvIdleTask+0x58>)
		while( uxDeletedTasksWaitingCleanUp > ( UBaseType_t ) 0U )
 8002748:	6823      	ldr	r3, [r4, #0]
 800274a:	b973      	cbnz	r3, 800276a <prvIdleTask+0x2a>
			if( listCURRENT_LIST_LENGTH( &( pxReadyTasksLists[ tskIDLE_PRIORITY ] ) ) > ( UBaseType_t ) 1 )
 800274c:	4b13      	ldr	r3, [pc, #76]	@ (800279c <prvIdleTask+0x5c>)
 800274e:	681b      	ldr	r3, [r3, #0]
 8002750:	2b01      	cmp	r3, #1
 8002752:	d9f8      	bls.n	8002746 <prvIdleTask+0x6>
				taskYIELD();
 8002754:	f04f 23e0 	mov.w	r3, #3758153728	@ 0xe000e000
 8002758:	f04f 5280 	mov.w	r2, #268435456	@ 0x10000000
 800275c:	f8c3 2d04 	str.w	r2, [r3, #3332]	@ 0xd04
 8002760:	f3bf 8f4f 	dsb	sy
 8002764:	f3bf 8f6f 	isb	sy
 8002768:	e7ed      	b.n	8002746 <prvIdleTask+0x6>
			taskENTER_CRITICAL();
 800276a:	f000 fe4b 	bl	8003404 <vPortEnterCritical>
				pxTCB = ( TCB_t * ) listGET_OWNER_OF_HEAD_ENTRY( ( &xTasksWaitingTermination ) );
 800276e:	68fb      	ldr	r3, [r7, #12]
 8002770:	68de      	ldr	r6, [r3, #12]
				( void ) uxListRemove( &( pxTCB->xStateListItem ) );
 8002772:	1d30      	adds	r0, r6, #4
 8002774:	f7ff fb7f 	bl	8001e76 <uxListRemove>
				--uxCurrentNumberOfTasks;
 8002778:	682b      	ldr	r3, [r5, #0]
 800277a:	3b01      	subs	r3, #1
 800277c:	602b      	str	r3, [r5, #0]
				--uxDeletedTasksWaitingCleanUp;
 800277e:	6823      	ldr	r3, [r4, #0]
 8002780:	3b01      	subs	r3, #1
 8002782:	6023      	str	r3, [r4, #0]
			taskEXIT_CRITICAL();
 8002784:	f000 fe5e 	bl	8003444 <vPortExitCritical>
			prvDeleteTCB( pxTCB );
 8002788:	4630      	mov	r0, r6
 800278a:	f7ff ffbd 	bl	8002708 <prvDeleteTCB>
 800278e:	e7db      	b.n	8002748 <prvIdleTask+0x8>
 8002790:	20000c20 	.word	0x20000c20
 8002794:	20000c24 	.word	0x20000c24
 8002798:	20000c08 	.word	0x20000c08
 800279c:	20000c7c 	.word	0x20000c7c

080027a0 <prvInitialiseNewTask.constprop.0>:
static void prvInitialiseNewTask( 	TaskFunction_t pxTaskCode,
 80027a0:	e92d 47f0 	stmdb	sp!, {r4, r5, r6, r7, r8, r9, sl, lr}
 80027a4:	4607      	mov	r7, r0
 80027a6:	e9dd 8409 	ldrd	r8, r4, [sp, #36]	@ 0x24
		pxTopOfStack = pxNewTCB->pxStack + ( ulStackDepth - ( uint32_t ) 1 );
 80027aa:	f102 4280 	add.w	r2, r2, #1073741824	@ 0x40000000
 80027ae:	6b26      	ldr	r6, [r4, #48]	@ 0x30
 80027b0:	3a01      	subs	r2, #1
 80027b2:	eb06 0682 	add.w	r6, r6, r2, lsl #2
static void prvInitialiseNewTask( 	TaskFunction_t pxTaskCode,
 80027b6:	4699      	mov	r9, r3
		pxTopOfStack = ( StackType_t * ) ( ( ( portPOINTER_SIZE_TYPE ) pxTopOfStack ) & ( ~( ( portPOINTER_SIZE_TYPE ) portBYTE_ALIGNMENT_MASK ) ) ); /*lint !e923 MISRA exception.  Avoiding casts between pointers and integers is not practical.  Size differences accounted for using portPOINTER_SIZE_TYPE type. */
 80027b8:	f026 0607 	bic.w	r6, r6, #7
	for( x = ( UBaseType_t ) 0; x < ( UBaseType_t ) configMAX_TASK_NAME_LEN; x++ )
 80027bc:	1e4b      	subs	r3, r1, #1
 80027be:	f104 0233 	add.w	r2, r4, #51	@ 0x33
 80027c2:	310f      	adds	r1, #15
		pxNewTCB->pcTaskName[ x ] = pcName[ x ];
 80027c4:	f813 0f01 	ldrb.w	r0, [r3, #1]!
 80027c8:	f802 0f01 	strb.w	r0, [r2, #1]!
		if( pcName[ x ] == 0x00 )
 80027cc:	b108      	cbz	r0, 80027d2 <prvInitialiseNewTask.constprop.0+0x32>
	for( x = ( UBaseType_t ) 0; x < ( UBaseType_t ) configMAX_TASK_NAME_LEN; x++ )
 80027ce:	428b      	cmp	r3, r1
 80027d0:	d1f8      	bne.n	80027c4 <prvInitialiseNewTask.constprop.0+0x24>
	if( uxPriority >= ( UBaseType_t ) configMAX_PRIORITIES )
 80027d2:	9d08      	ldr	r5, [sp, #32]
	pxNewTCB->pcTaskName[ configMAX_TASK_NAME_LEN - 1 ] = '\0';
 80027d4:	f04f 0a00 	mov.w	sl, #0
	if( uxPriority >= ( UBaseType_t ) configMAX_PRIORITIES )
 80027d8:	2d06      	cmp	r5, #6
 80027da:	bf28      	it	cs
 80027dc:	2506      	movcs	r5, #6
	vListInitialiseItem( &( pxNewTCB->xStateListItem ) );
 80027de:	1d20      	adds	r0, r4, #4
		pxNewTCB->uxMutexesHeld = 0;
 80027e0:	e9c4 5a11 	strd	r5, sl, [r4, #68]	@ 0x44
	pxNewTCB->uxPriority = uxPriority;
 80027e4:	62e5      	str	r5, [r4, #44]	@ 0x2c
	pxNewTCB->pcTaskName[ configMAX_TASK_NAME_LEN - 1 ] = '\0';
 80027e6:	f884 a043 	strb.w	sl, [r4, #67]	@ 0x43
	vListInitialiseItem( &( pxNewTCB->xStateListItem ) );
 80027ea:	f7ff fb1f 	bl	8001e2c <vListInitialiseItem>
	listSET_LIST_ITEM_VALUE( &( pxNewTCB->xEventListItem ), ( TickType_t ) configMAX_PRIORITIES - ( TickType_t ) uxPriority ); /*lint !e961 MISRA exception as the casts are only redundant for some ports. */
 80027ee:	f1c5 0507 	rsb	r5, r5, #7
	vListInitialiseItem( &( pxNewTCB->xEventListItem ) );
 80027f2:	f104 0018 	add.w	r0, r4, #24
 80027f6:	f7ff fb19 	bl	8001e2c <vListInitialiseItem>
		pxNewTCB->ulNotifiedValue = 0;
 80027fa:	f8c4 a04c 	str.w	sl, [r4, #76]	@ 0x4c
		pxNewTCB->pxTopOfStack = pxPortInitialiseStack( pxTopOfStack, pxTaskCode, pvParameters );
 80027fe:	464a      	mov	r2, r9
 8002800:	4639      	mov	r1, r7
 8002802:	4630      	mov	r0, r6
	listSET_LIST_ITEM_OWNER( &( pxNewTCB->xStateListItem ), pxNewTCB );
 8002804:	6124      	str	r4, [r4, #16]
	listSET_LIST_ITEM_VALUE( &( pxNewTCB->xEventListItem ), ( TickType_t ) configMAX_PRIORITIES - ( TickType_t ) uxPriority ); /*lint !e961 MISRA exception as the casts are only redundant for some ports. */
 8002806:	61a5      	str	r5, [r4, #24]
	listSET_LIST_ITEM_OWNER( &( pxNewTCB->xEventListItem ), pxNewTCB );
 8002808:	6264      	str	r4, [r4, #36]	@ 0x24
		pxNewTCB->ucNotifyState = taskNOT_WAITING_NOTIFICATION;
 800280a:	f884 a050 	strb.w	sl, [r4, #80]	@ 0x50
		pxNewTCB->pxTopOfStack = pxPortInitialiseStack( pxTopOfStack, pxTaskCode, pvParameters );
 800280e:	f000 fdd3 	bl	80033b8 <pxPortInitialiseStack>
 8002812:	6020      	str	r0, [r4, #0]
	if( ( void * ) pxCreatedTask != NULL )
 8002814:	f1b8 0f00 	cmp.w	r8, #0
 8002818:	d001      	beq.n	800281e <prvInitialiseNewTask.constprop.0+0x7e>
		*pxCreatedTask = ( TaskHandle_t ) pxNewTCB;
 800281a:	f8c8 4000 	str.w	r4, [r8]
}
 800281e:	e8bd 87f0 	ldmia.w	sp!, {r4, r5, r6, r7, r8, r9, sl, pc}

08002822 <xTaskCreateStatic>:
	{
 8002822:	b570      	push	{r4, r5, r6, lr}
 8002824:	b086      	sub	sp, #24
 8002826:	e9dd 540b 	ldrd	r5, r4, [sp, #44]	@ 0x2c
		configASSERT( puxStackBuffer != NULL );
 800282a:	b945      	cbnz	r5, 800283e <xTaskCreateStatic+0x1c>
 800282c:	f04f 0350 	mov.w	r3, #80	@ 0x50
 8002830:	f383 8811 	msr	BASEPRI, r3
 8002834:	f3bf 8f6f 	isb	sy
 8002838:	f3bf 8f4f 	dsb	sy
 800283c:	e7fe      	b.n	800283c <xTaskCreateStatic+0x1a>
		configASSERT( pxTaskBuffer != NULL );
 800283e:	b944      	cbnz	r4, 8002852 <xTaskCreateStatic+0x30>
 8002840:	f04f 0350 	mov.w	r3, #80	@ 0x50
 8002844:	f383 8811 	msr	BASEPRI, r3
 8002848:	f3bf 8f6f 	isb	sy
 800284c:	f3bf 8f4f 	dsb	sy
 8002850:	e7fe      	b.n	8002850 <xTaskCreateStatic+0x2e>
			volatile size_t xSize = sizeof( StaticTask_t );
 8002852:	2654      	movs	r6, #84	@ 0x54
 8002854:	9605      	str	r6, [sp, #20]
			configASSERT( xSize == sizeof( TCB_t ) );
 8002856:	9e05      	ldr	r6, [sp, #20]
 8002858:	2e54      	cmp	r6, #84	@ 0x54
 800285a:	d008      	beq.n	800286e <xTaskCreateStatic+0x4c>
 800285c:	f04f 0350 	mov.w	r3, #80	@ 0x50
 8002860:	f383 8811 	msr	BASEPRI, r3
 8002864:	f3bf 8f6f 	isb	sy
 8002868:	f3bf 8f4f 	dsb	sy
 800286c:	e7fe      	b.n	800286c <xTaskCreateStatic+0x4a>
			pxNewTCB->pxStack = ( StackType_t * ) puxStackBuffer;
 800286e:	6325      	str	r5, [r4, #48]	@ 0x30
				pxNewTCB->ucStaticallyAllocated = tskSTATICALLY_ALLOCATED_STACK_AND_TCB;
 8002870:	2502      	movs	r5, #2
 8002872:	f884 5051 	strb.w	r5, [r4, #81]	@ 0x51
			prvInitialiseNewTask( pxTaskCode, pcName, ulStackDepth, pvParameters, uxPriority, &xReturn, pxNewTCB, NULL );
 8002876:	ad04      	add	r5, sp, #16
 8002878:	9501      	str	r5, [sp, #4]
 800287a:	9d0a      	ldr	r5, [sp, #40]	@ 0x28
 800287c:	9402      	str	r4, [sp, #8]
 800287e:	9500      	str	r5, [sp, #0]
 8002880:	f7ff ff8e 	bl	80027a0 <prvInitialiseNewTask.constprop.0>
			prvAddNewTaskToReadyList( pxNewTCB );
 8002884:	4620      	mov	r0, r4
 8002886:	f7ff fe6b 	bl	8002560 <prvAddNewTaskToReadyList>
	}
 800288a:	9804      	ldr	r0, [sp, #16]
 800288c:	b006      	add	sp, #24
 800288e:	bd70      	pop	{r4, r5, r6, pc}

08002890 <xTaskCreate>:
	{
 8002890:	e92d 43f0 	stmdb	sp!, {r4, r5, r6, r7, r8, r9, lr}
 8002894:	4607      	mov	r7, r0
 8002896:	b085      	sub	sp, #20
			pxStack = ( StackType_t * ) pvPortMalloc( ( ( ( size_t ) usStackDepth ) * sizeof( StackType_t ) ) ); /*lint !e961 MISRA exception as the casts are only redundant for some ports. */
 8002898:	0090      	lsls	r0, r2, #2
	{
 800289a:	4688      	mov	r8, r1
 800289c:	4616      	mov	r6, r2
 800289e:	4699      	mov	r9, r3
			pxStack = ( StackType_t * ) pvPortMalloc( ( ( ( size_t ) usStackDepth ) * sizeof( StackType_t ) ) ); /*lint !e961 MISRA exception as the casts are only redundant for some ports. */
 80028a0:	f000 fedc 	bl	800365c <pvPortMalloc>
			if( pxStack != NULL )
 80028a4:	4605      	mov	r5, r0
 80028a6:	b920      	cbnz	r0, 80028b2 <xTaskCreate+0x22>
			xReturn = errCOULD_NOT_ALLOCATE_REQUIRED_MEMORY;
 80028a8:	f04f 30ff 	mov.w	r0, #4294967295
	}
 80028ac:	b005      	add	sp, #20
 80028ae:	e8bd 83f0 	ldmia.w	sp!, {r4, r5, r6, r7, r8, r9, pc}
				pxNewTCB = ( TCB_t * ) pvPortMalloc( sizeof( TCB_t ) ); /*lint !e961 MISRA exception as the casts are only redundant for some paths. */
 80028b2:	2054      	movs	r0, #84	@ 0x54
 80028b4:	f000 fed2 	bl	800365c <pvPortMalloc>
				if( pxNewTCB != NULL )
 80028b8:	4604      	mov	r4, r0
 80028ba:	b198      	cbz	r0, 80028e4 <xTaskCreate+0x54>
				pxNewTCB->ucStaticallyAllocated = tskDYNAMICALLY_ALLOCATED_STACK_AND_TCB;
 80028bc:	2300      	movs	r3, #0
 80028be:	f880 3051 	strb.w	r3, [r0, #81]	@ 0x51
			prvInitialiseNewTask( pxTaskCode, pcName, ( uint32_t ) usStackDepth, pvParameters, uxPriority, pxCreatedTask, pxNewTCB, NULL );
 80028c2:	9b0d      	ldr	r3, [sp, #52]	@ 0x34
					pxNewTCB->pxStack = pxStack;
 80028c4:	6305      	str	r5, [r0, #48]	@ 0x30
			prvInitialiseNewTask( pxTaskCode, pcName, ( uint32_t ) usStackDepth, pvParameters, uxPriority, pxCreatedTask, pxNewTCB, NULL );
 80028c6:	9301      	str	r3, [sp, #4]
 80028c8:	9b0c      	ldr	r3, [sp, #48]	@ 0x30
 80028ca:	4632      	mov	r2, r6
 80028cc:	4641      	mov	r1, r8
 80028ce:	9002      	str	r0, [sp, #8]
 80028d0:	9300      	str	r3, [sp, #0]
 80028d2:	4638      	mov	r0, r7
 80028d4:	464b      	mov	r3, r9
 80028d6:	f7ff ff63 	bl	80027a0 <prvInitialiseNewTask.constprop.0>
			prvAddNewTaskToReadyList( pxNewTCB );
 80028da:	4620      	mov	r0, r4
 80028dc:	f7ff fe40 	bl	8002560 <prvAddNewTaskToReadyList>
			xReturn = pdPASS;
 80028e0:	2001      	movs	r0, #1
 80028e2:	e7e3      	b.n	80028ac <xTaskCreate+0x1c>
					vPortFree( pxStack );
 80028e4:	4628      	mov	r0, r5
 80028e6:	f000 ff4b 	bl	8003780 <vPortFree>
		if( pxNewTCB != NULL )
 80028ea:	e7dd      	b.n	80028a8 <xTaskCreate+0x18>

080028ec <vTaskStartScheduler>:
{
 80028ec:	b510      	push	{r4, lr}
		StaticTask_t *pxIdleTaskTCBBuffer = NULL;
 80028ee:	2400      	movs	r4, #0
{
 80028f0:	b088      	sub	sp, #32
		vApplicationGetIdleTaskMemory( &pxIdleTaskTCBBuffer, &pxIdleTaskStackBuffer, &ulIdleTaskStackSize );
 80028f2:	aa07      	add	r2, sp, #28
 80028f4:	a906      	add	r1, sp, #24
 80028f6:	a805      	add	r0, sp, #20
		StackType_t *pxIdleTaskStackBuffer = NULL;
 80028f8:	e9cd 4405 	strd	r4, r4, [sp, #20]
		vApplicationGetIdleTaskMemory( &pxIdleTaskTCBBuffer, &pxIdleTaskStackBuffer, &ulIdleTaskStackSize );
 80028fc:	f7fd fc28 	bl	8000150 <vApplicationGetIdleTaskMemory>
		xIdleTaskHandle = xTaskCreateStatic(	prvIdleTask,
 8002900:	9b05      	ldr	r3, [sp, #20]
 8002902:	9a07      	ldr	r2, [sp, #28]
 8002904:	9302      	str	r3, [sp, #8]
 8002906:	9b06      	ldr	r3, [sp, #24]
 8002908:	4916      	ldr	r1, [pc, #88]	@ (8002964 <vTaskStartScheduler+0x78>)
 800290a:	e9cd 4300 	strd	r4, r3, [sp]
 800290e:	4816      	ldr	r0, [pc, #88]	@ (8002968 <vTaskStartScheduler+0x7c>)
 8002910:	4623      	mov	r3, r4
 8002912:	f7ff ff86 	bl	8002822 <xTaskCreateStatic>
		if( xIdleTaskHandle != NULL )
 8002916:	b318      	cbz	r0, 8002960 <vTaskStartScheduler+0x74>
			xReturn = xTimerCreateTimerTask();
 8002918:	f000 fb26 	bl	8002f68 <xTimerCreateTimerTask>
	if( xReturn == pdPASS )
 800291c:	2801      	cmp	r0, #1
 800291e:	d114      	bne.n	800294a <vTaskStartScheduler+0x5e>
 8002920:	f04f 0350 	mov.w	r3, #80	@ 0x50
 8002924:	f383 8811 	msr	BASEPRI, r3
 8002928:	f3bf 8f6f 	isb	sy
 800292c:	f3bf 8f4f 	dsb	sy
		xNextTaskUnblockTime = portMAX_DELAY;
 8002930:	f04f 32ff 	mov.w	r2, #4294967295
 8002934:	4b0d      	ldr	r3, [pc, #52]	@ (800296c <vTaskStartScheduler+0x80>)
 8002936:	601a      	str	r2, [r3, #0]
		xSchedulerRunning = pdTRUE;
 8002938:	4b0d      	ldr	r3, [pc, #52]	@ (8002970 <vTaskStartScheduler+0x84>)
 800293a:	6018      	str	r0, [r3, #0]
		xTickCount = ( TickType_t ) 0U;
 800293c:	4b0d      	ldr	r3, [pc, #52]	@ (8002974 <vTaskStartScheduler+0x88>)
 800293e:	601c      	str	r4, [r3, #0]
}
 8002940:	b008      	add	sp, #32
 8002942:	e8bd 4010 	ldmia.w	sp!, {r4, lr}
		if( xPortStartScheduler() != pdFALSE )
 8002946:	f000 bddd 	b.w	8003504 <xPortStartScheduler>
		configASSERT( xReturn != errCOULD_NOT_ALLOCATE_REQUIRED_MEMORY );
 800294a:	3001      	adds	r0, #1
 800294c:	d108      	bne.n	8002960 <vTaskStartScheduler+0x74>
 800294e:	f04f 0350 	mov.w	r3, #80	@ 0x50
 8002952:	f383 8811 	msr	BASEPRI, r3
 8002956:	f3bf 8f6f 	isb	sy
 800295a:	f3bf 8f4f 	dsb	sy
 800295e:	e7fe      	b.n	800295e <vTaskStartScheduler+0x72>
}
 8002960:	b008      	add	sp, #32
 8002962:	bd10      	pop	{r4, pc}
 8002964:	08005a5a 	.word	0x08005a5a
 8002968:	08002741 	.word	0x08002741
 800296c:	20000be8 	.word	0x20000be8
 8002970:	20000bfc 	.word	0x20000bfc
 8002974:	20000c04 	.word	0x20000c04

08002978 <vTaskSuspendAll>:
	++uxSchedulerSuspended;
 8002978:	4a02      	ldr	r2, [pc, #8]	@ (8002984 <vTaskSuspendAll+0xc>)
 800297a:	6813      	ldr	r3, [r2, #0]
 800297c:	3301      	adds	r3, #1
 800297e:	6013      	str	r3, [r2, #0]
}
 8002980:	4770      	bx	lr
 8002982:	bf00      	nop
 8002984:	20000be4 	.word	0x20000be4

08002988 <xTaskGetTickCount>:
		xTicks = xTickCount;
 8002988:	4b01      	ldr	r3, [pc, #4]	@ (8002990 <xTaskGetTickCount+0x8>)
 800298a:	6818      	ldr	r0, [r3, #0]
}
 800298c:	4770      	bx	lr
 800298e:	bf00      	nop
 8002990:	20000c04 	.word	0x20000c04

08002994 <xTaskIncrementTick>:
	if( uxSchedulerSuspended == ( UBaseType_t ) pdFALSE )
 8002994:	4b41      	ldr	r3, [pc, #260]	@ (8002a9c <xTaskIncrementTick+0x108>)
{
 8002996:	e92d 4ff7 	stmdb	sp!, {r0, r1, r2, r4, r5, r6, r7, r8, r9, sl, fp, lr}
	if( uxSchedulerSuspended == ( UBaseType_t ) pdFALSE )
 800299a:	681b      	ldr	r3, [r3, #0]
 800299c:	2b00      	cmp	r3, #0
 800299e:	d175      	bne.n	8002a8c <xTaskIncrementTick+0xf8>
		const TickType_t xConstTickCount = xTickCount + ( TickType_t ) 1;
 80029a0:	4b3f      	ldr	r3, [pc, #252]	@ (8002aa0 <xTaskIncrementTick+0x10c>)
 80029a2:	681c      	ldr	r4, [r3, #0]
 80029a4:	3401      	adds	r4, #1
		xTickCount = xConstTickCount;
 80029a6:	601c      	str	r4, [r3, #0]
		if( xConstTickCount == ( TickType_t ) 0U ) /*lint !e774 'if' does not always evaluate to false as it is looking for an overflow. */
 80029a8:	b9bc      	cbnz	r4, 80029da <xTaskIncrementTick+0x46>
			taskSWITCH_DELAYED_LISTS();
 80029aa:	4b3e      	ldr	r3, [pc, #248]	@ (8002aa4 <xTaskIncrementTick+0x110>)
 80029ac:	681a      	ldr	r2, [r3, #0]
 80029ae:	6812      	ldr	r2, [r2, #0]
 80029b0:	b142      	cbz	r2, 80029c4 <xTaskIncrementTick+0x30>
 80029b2:	f04f 0350 	mov.w	r3, #80	@ 0x50
 80029b6:	f383 8811 	msr	BASEPRI, r3
 80029ba:	f3bf 8f6f 	isb	sy
 80029be:	f3bf 8f4f 	dsb	sy
 80029c2:	e7fe      	b.n	80029c2 <xTaskIncrementTick+0x2e>
 80029c4:	4a38      	ldr	r2, [pc, #224]	@ (8002aa8 <xTaskIncrementTick+0x114>)
 80029c6:	6819      	ldr	r1, [r3, #0]
 80029c8:	6810      	ldr	r0, [r2, #0]
 80029ca:	6018      	str	r0, [r3, #0]
 80029cc:	6011      	str	r1, [r2, #0]
 80029ce:	4a37      	ldr	r2, [pc, #220]	@ (8002aac <xTaskIncrementTick+0x118>)
 80029d0:	6813      	ldr	r3, [r2, #0]
 80029d2:	3301      	adds	r3, #1
 80029d4:	6013      	str	r3, [r2, #0]
 80029d6:	f7ff fe85 	bl	80026e4 <prvResetNextTaskUnblockTime>
		if( xConstTickCount >= xNextTaskUnblockTime )
 80029da:	4d35      	ldr	r5, [pc, #212]	@ (8002ab0 <xTaskIncrementTick+0x11c>)
BaseType_t xSwitchRequired = pdFALSE;
 80029dc:	f04f 0b00 	mov.w	fp, #0
		if( xConstTickCount >= xNextTaskUnblockTime )
 80029e0:	682b      	ldr	r3, [r5, #0]
 80029e2:	4e34      	ldr	r6, [pc, #208]	@ (8002ab4 <xTaskIncrementTick+0x120>)
 80029e4:	42a3      	cmp	r3, r4
 80029e6:	4f34      	ldr	r7, [pc, #208]	@ (8002ab8 <xTaskIncrementTick+0x124>)
 80029e8:	d911      	bls.n	8002a0e <xTaskIncrementTick+0x7a>
			if( listCURRENT_LIST_LENGTH( &( pxReadyTasksLists[ pxCurrentTCB->uxPriority ] ) ) > ( UBaseType_t ) 1 )
 80029ea:	2114      	movs	r1, #20
 80029ec:	683a      	ldr	r2, [r7, #0]
 80029ee:	6ad2      	ldr	r2, [r2, #44]	@ 0x2c
 80029f0:	434a      	muls	r2, r1
 80029f2:	58b2      	ldr	r2, [r6, r2]
				xSwitchRequired = pdTRUE;
 80029f4:	2a02      	cmp	r2, #2
 80029f6:	bf28      	it	cs
 80029f8:	f04f 0b01 	movcs.w	fp, #1
		if( xYieldPending != pdFALSE )
 80029fc:	4a2f      	ldr	r2, [pc, #188]	@ (8002abc <xTaskIncrementTick+0x128>)
 80029fe:	6812      	ldr	r2, [r2, #0]
			xSwitchRequired = pdTRUE;
 8002a00:	2a00      	cmp	r2, #0
}
 8002a02:	bf0c      	ite	eq
 8002a04:	4658      	moveq	r0, fp
 8002a06:	2001      	movne	r0, #1
 8002a08:	b003      	add	sp, #12
 8002a0a:	e8bd 8ff0 	ldmia.w	sp!, {r4, r5, r6, r7, r8, r9, sl, fp, pc}
				if( listLIST_IS_EMPTY( pxDelayedTaskList ) != pdFALSE )
 8002a0e:	f8df a094 	ldr.w	sl, [pc, #148]	@ 8002aa4 <xTaskIncrementTick+0x110>
					prvAddTaskToReadyList( pxTCB );
 8002a12:	f8df 90ac 	ldr.w	r9, [pc, #172]	@ 8002ac0 <xTaskIncrementTick+0x12c>
				if( listLIST_IS_EMPTY( pxDelayedTaskList ) != pdFALSE )
 8002a16:	f8da 2000 	ldr.w	r2, [sl]
 8002a1a:	6812      	ldr	r2, [r2, #0]
 8002a1c:	b91a      	cbnz	r2, 8002a26 <xTaskIncrementTick+0x92>
					xNextTaskUnblockTime = portMAX_DELAY; /*lint !e961 MISRA exception as the casts are only redundant for some ports. */
 8002a1e:	f04f 32ff 	mov.w	r2, #4294967295
 8002a22:	602a      	str	r2, [r5, #0]
					break;
 8002a24:	e7e1      	b.n	80029ea <xTaskIncrementTick+0x56>
					pxTCB = ( TCB_t * ) listGET_OWNER_OF_HEAD_ENTRY( pxDelayedTaskList );
 8002a26:	f8da 2000 	ldr.w	r2, [sl]
 8002a2a:	68d2      	ldr	r2, [r2, #12]
 8002a2c:	f8d2 800c 	ldr.w	r8, [r2, #12]
					xItemValue = listGET_LIST_ITEM_VALUE( &( pxTCB->xStateListItem ) );
 8002a30:	f8d8 1004 	ldr.w	r1, [r8, #4]
					if( xConstTickCount < xItemValue )
 8002a34:	428c      	cmp	r4, r1
 8002a36:	d201      	bcs.n	8002a3c <xTaskIncrementTick+0xa8>
						xNextTaskUnblockTime = xItemValue;
 8002a38:	6029      	str	r1, [r5, #0]
						break;
 8002a3a:	e7d6      	b.n	80029ea <xTaskIncrementTick+0x56>
					( void ) uxListRemove( &( pxTCB->xStateListItem ) );
 8002a3c:	f108 0304 	add.w	r3, r8, #4
 8002a40:	4618      	mov	r0, r3
 8002a42:	9301      	str	r3, [sp, #4]
 8002a44:	f7ff fa17 	bl	8001e76 <uxListRemove>
					if( listLIST_ITEM_CONTAINER( &( pxTCB->xEventListItem ) ) != NULL )
 8002a48:	f8d8 1028 	ldr.w	r1, [r8, #40]	@ 0x28
 8002a4c:	b119      	cbz	r1, 8002a56 <xTaskIncrementTick+0xc2>
						( void ) uxListRemove( &( pxTCB->xEventListItem ) );
 8002a4e:	f108 0018 	add.w	r0, r8, #24
 8002a52:	f7ff fa10 	bl	8001e76 <uxListRemove>
					prvAddTaskToReadyList( pxTCB );
 8002a56:	2201      	movs	r2, #1
 8002a58:	f04f 0c14 	mov.w	ip, #20
 8002a5c:	f8d8 002c 	ldr.w	r0, [r8, #44]	@ 0x2c
 8002a60:	f8d9 3000 	ldr.w	r3, [r9]
 8002a64:	fa02 f100 	lsl.w	r1, r2, r0
 8002a68:	4319      	orrs	r1, r3
 8002a6a:	fb0c 6000 	mla	r0, ip, r0, r6
 8002a6e:	f8c9 1000 	str.w	r1, [r9]
 8002a72:	f108 0104 	add.w	r1, r8, #4
 8002a76:	f7ff f9dc 	bl	8001e32 <vListInsertEnd>
						if( pxTCB->uxPriority >= pxCurrentTCB->uxPriority )
 8002a7a:	6838      	ldr	r0, [r7, #0]
 8002a7c:	f8d8 102c 	ldr.w	r1, [r8, #44]	@ 0x2c
 8002a80:	6ac2      	ldr	r2, [r0, #44]	@ 0x2c
							xSwitchRequired = pdTRUE;
 8002a82:	4291      	cmp	r1, r2
 8002a84:	bf28      	it	cs
 8002a86:	f04f 0b01 	movcs.w	fp, #1
 8002a8a:	e7c4      	b.n	8002a16 <xTaskIncrementTick+0x82>
		++uxPendedTicks;
 8002a8c:	4a0d      	ldr	r2, [pc, #52]	@ (8002ac4 <xTaskIncrementTick+0x130>)
BaseType_t xSwitchRequired = pdFALSE;
 8002a8e:	f04f 0b00 	mov.w	fp, #0
		++uxPendedTicks;
 8002a92:	6813      	ldr	r3, [r2, #0]
 8002a94:	3301      	adds	r3, #1
 8002a96:	6013      	str	r3, [r2, #0]
 8002a98:	e7b0      	b.n	80029fc <xTaskIncrementTick+0x68>
 8002a9a:	bf00      	nop
 8002a9c:	20000be4 	.word	0x20000be4
 8002aa0:	20000c04 	.word	0x20000c04
 8002aa4:	20000c50 	.word	0x20000c50
 8002aa8:	20000c4c 	.word	0x20000c4c
 8002aac:	20000bf0 	.word	0x20000bf0
 8002ab0:	20000be8 	.word	0x20000be8
 8002ab4:	20000c7c 	.word	0x20000c7c
 8002ab8:	20000d08 	.word	0x20000d08
 8002abc:	20000bf4 	.word	0x20000bf4
 8002ac0:	20000c00 	.word	0x20000c00
 8002ac4:	20000bf8 	.word	0x20000bf8

08002ac8 <xTaskResumeAll>:
{
 8002ac8:	e92d 43f8 	stmdb	sp!, {r3, r4, r5, r6, r7, r8, r9, lr}
	configASSERT( uxSchedulerSuspended );
 8002acc:	4c31      	ldr	r4, [pc, #196]	@ (8002b94 <xTaskResumeAll+0xcc>)
 8002ace:	6823      	ldr	r3, [r4, #0]
 8002ad0:	b943      	cbnz	r3, 8002ae4 <xTaskResumeAll+0x1c>
 8002ad2:	f04f 0350 	mov.w	r3, #80	@ 0x50
 8002ad6:	f383 8811 	msr	BASEPRI, r3
 8002ada:	f3bf 8f6f 	isb	sy
 8002ade:	f3bf 8f4f 	dsb	sy
 8002ae2:	e7fe      	b.n	8002ae2 <xTaskResumeAll+0x1a>
	taskENTER_CRITICAL();
 8002ae4:	f000 fc8e 	bl	8003404 <vPortEnterCritical>
		--uxSchedulerSuspended;
 8002ae8:	6823      	ldr	r3, [r4, #0]
 8002aea:	3b01      	subs	r3, #1
 8002aec:	6023      	str	r3, [r4, #0]
		if( uxSchedulerSuspended == ( UBaseType_t ) pdFALSE )
 8002aee:	6824      	ldr	r4, [r4, #0]
 8002af0:	b12c      	cbz	r4, 8002afe <xTaskResumeAll+0x36>
BaseType_t xAlreadyYielded = pdFALSE;
 8002af2:	2400      	movs	r4, #0
	taskEXIT_CRITICAL();
 8002af4:	f000 fca6 	bl	8003444 <vPortExitCritical>
}
 8002af8:	4620      	mov	r0, r4
 8002afa:	e8bd 83f8 	ldmia.w	sp!, {r3, r4, r5, r6, r7, r8, r9, pc}
			if( uxCurrentNumberOfTasks > ( UBaseType_t ) 0U )
 8002afe:	4b26      	ldr	r3, [pc, #152]	@ (8002b98 <xTaskResumeAll+0xd0>)
 8002b00:	681b      	ldr	r3, [r3, #0]
 8002b02:	2b00      	cmp	r3, #0
 8002b04:	d0f5      	beq.n	8002af2 <xTaskResumeAll+0x2a>
				while( listLIST_IS_EMPTY( &xPendingReadyList ) == pdFALSE )
 8002b06:	4d25      	ldr	r5, [pc, #148]	@ (8002b9c <xTaskResumeAll+0xd4>)
					prvAddTaskToReadyList( pxTCB );
 8002b08:	4e25      	ldr	r6, [pc, #148]	@ (8002ba0 <xTaskResumeAll+0xd8>)
 8002b0a:	f8df 8098 	ldr.w	r8, [pc, #152]	@ 8002ba4 <xTaskResumeAll+0xdc>
 8002b0e:	e01f      	b.n	8002b50 <xTaskResumeAll+0x88>
					pxTCB = ( TCB_t * ) listGET_OWNER_OF_HEAD_ENTRY( ( &xPendingReadyList ) );
 8002b10:	68eb      	ldr	r3, [r5, #12]
					prvAddTaskToReadyList( pxTCB );
 8002b12:	2701      	movs	r7, #1
					pxTCB = ( TCB_t * ) listGET_OWNER_OF_HEAD_ENTRY( ( &xPendingReadyList ) );
 8002b14:	68dc      	ldr	r4, [r3, #12]
					( void ) uxListRemove( &( pxTCB->xStateListItem ) );
 8002b16:	f104 0904 	add.w	r9, r4, #4
					( void ) uxListRemove( &( pxTCB->xEventListItem ) );
 8002b1a:	f104 0018 	add.w	r0, r4, #24
 8002b1e:	f7ff f9aa 	bl	8001e76 <uxListRemove>
					( void ) uxListRemove( &( pxTCB->xStateListItem ) );
 8002b22:	4648      	mov	r0, r9
 8002b24:	f7ff f9a7 	bl	8001e76 <uxListRemove>
					prvAddTaskToReadyList( pxTCB );
 8002b28:	2014      	movs	r0, #20
 8002b2a:	6ae2      	ldr	r2, [r4, #44]	@ 0x2c
 8002b2c:	6831      	ldr	r1, [r6, #0]
 8002b2e:	fa07 f302 	lsl.w	r3, r7, r2
 8002b32:	430b      	orrs	r3, r1
 8002b34:	fb00 8002 	mla	r0, r0, r2, r8
 8002b38:	4649      	mov	r1, r9
 8002b3a:	6033      	str	r3, [r6, #0]
 8002b3c:	f7ff f979 	bl	8001e32 <vListInsertEnd>
					if( pxTCB->uxPriority >= pxCurrentTCB->uxPriority )
 8002b40:	4b19      	ldr	r3, [pc, #100]	@ (8002ba8 <xTaskResumeAll+0xe0>)
 8002b42:	6ae2      	ldr	r2, [r4, #44]	@ 0x2c
 8002b44:	681b      	ldr	r3, [r3, #0]
 8002b46:	6adb      	ldr	r3, [r3, #44]	@ 0x2c
 8002b48:	429a      	cmp	r2, r3
 8002b4a:	d301      	bcc.n	8002b50 <xTaskResumeAll+0x88>
						xYieldPending = pdTRUE;
 8002b4c:	4b17      	ldr	r3, [pc, #92]	@ (8002bac <xTaskResumeAll+0xe4>)
 8002b4e:	601f      	str	r7, [r3, #0]
				while( listLIST_IS_EMPTY( &xPendingReadyList ) == pdFALSE )
 8002b50:	682b      	ldr	r3, [r5, #0]
 8002b52:	2b00      	cmp	r3, #0
 8002b54:	d1dc      	bne.n	8002b10 <xTaskResumeAll+0x48>
				if( pxTCB != NULL )
 8002b56:	b10c      	cbz	r4, 8002b5c <xTaskResumeAll+0x94>
					prvResetNextTaskUnblockTime();
 8002b58:	f7ff fdc4 	bl	80026e4 <prvResetNextTaskUnblockTime>
					UBaseType_t uxPendedCounts = uxPendedTicks; /* Non-volatile copy. */
 8002b5c:	4d14      	ldr	r5, [pc, #80]	@ (8002bb0 <xTaskResumeAll+0xe8>)
 8002b5e:	682c      	ldr	r4, [r5, #0]
					if( uxPendedCounts > ( UBaseType_t ) 0U )
 8002b60:	b144      	cbz	r4, 8002b74 <xTaskResumeAll+0xac>
								xYieldPending = pdTRUE;
 8002b62:	2701      	movs	r7, #1
 8002b64:	4e11      	ldr	r6, [pc, #68]	@ (8002bac <xTaskResumeAll+0xe4>)
							if( xTaskIncrementTick() != pdFALSE )
 8002b66:	f7ff ff15 	bl	8002994 <xTaskIncrementTick>
 8002b6a:	b100      	cbz	r0, 8002b6e <xTaskResumeAll+0xa6>
								xYieldPending = pdTRUE;
 8002b6c:	6037      	str	r7, [r6, #0]
						} while( uxPendedCounts > ( UBaseType_t ) 0U );
 8002b6e:	3c01      	subs	r4, #1
 8002b70:	d1f9      	bne.n	8002b66 <xTaskResumeAll+0x9e>
						uxPendedTicks = 0;
 8002b72:	602c      	str	r4, [r5, #0]
				if( xYieldPending != pdFALSE )
 8002b74:	4b0d      	ldr	r3, [pc, #52]	@ (8002bac <xTaskResumeAll+0xe4>)
 8002b76:	681b      	ldr	r3, [r3, #0]
 8002b78:	2b00      	cmp	r3, #0
 8002b7a:	d0ba      	beq.n	8002af2 <xTaskResumeAll+0x2a>
					taskYIELD_IF_USING_PREEMPTION();
 8002b7c:	f04f 23e0 	mov.w	r3, #3758153728	@ 0xe000e000
 8002b80:	f04f 5280 	mov.w	r2, #268435456	@ 0x10000000
 8002b84:	f8c3 2d04 	str.w	r2, [r3, #3332]	@ 0xd04
 8002b88:	f3bf 8f4f 	dsb	sy
 8002b8c:	f3bf 8f6f 	isb	sy
						xAlreadyYielded = pdTRUE;
 8002b90:	2401      	movs	r4, #1
 8002b92:	e7af      	b.n	8002af4 <xTaskResumeAll+0x2c>
 8002b94:	20000be4 	.word	0x20000be4
 8002b98:	20000c08 	.word	0x20000c08
 8002b9c:	20000c38 	.word	0x20000c38
 8002ba0:	20000c00 	.word	0x20000c00
 8002ba4:	20000c7c 	.word	0x20000c7c
 8002ba8:	20000d08 	.word	0x20000d08
 8002bac:	20000bf4 	.word	0x20000bf4
 8002bb0:	20000bf8 	.word	0x20000bf8

08002bb4 <vTaskDelay>:
	{
 8002bb4:	b508      	push	{r3, lr}
		if( xTicksToDelay > ( TickType_t ) 0U )
 8002bb6:	b950      	cbnz	r0, 8002bce <vTaskDelay+0x1a>
			portYIELD_WITHIN_API();
 8002bb8:	f04f 23e0 	mov.w	r3, #3758153728	@ 0xe000e000
 8002bbc:	f04f 5280 	mov.w	r2, #268435456	@ 0x10000000
 8002bc0:	f8c3 2d04 	str.w	r2, [r3, #3332]	@ 0xd04
 8002bc4:	f3bf 8f4f 	dsb	sy
 8002bc8:	f3bf 8f6f 	isb	sy
	}
 8002bcc:	bd08      	pop	{r3, pc}
			configASSERT( uxSchedulerSuspended == 0 );
 8002bce:	4b0a      	ldr	r3, [pc, #40]	@ (8002bf8 <vTaskDelay+0x44>)
 8002bd0:	6819      	ldr	r1, [r3, #0]
 8002bd2:	b141      	cbz	r1, 8002be6 <vTaskDelay+0x32>
 8002bd4:	f04f 0350 	mov.w	r3, #80	@ 0x50
 8002bd8:	f383 8811 	msr	BASEPRI, r3
 8002bdc:	f3bf 8f6f 	isb	sy
 8002be0:	f3bf 8f4f 	dsb	sy
 8002be4:	e7fe      	b.n	8002be4 <vTaskDelay+0x30>
			vTaskSuspendAll();
 8002be6:	f7ff fec7 	bl	8002978 <vTaskSuspendAll>
				prvAddCurrentTaskToDelayedList( xTicksToDelay, pdFALSE );
 8002bea:	f7ff fd37 	bl	800265c <prvAddCurrentTaskToDelayedList>
			xAlreadyYielded = xTaskResumeAll();
 8002bee:	f7ff ff6b 	bl	8002ac8 <xTaskResumeAll>
		if( xAlreadyYielded == pdFALSE )
 8002bf2:	2800      	cmp	r0, #0
 8002bf4:	d0e0      	beq.n	8002bb8 <vTaskDelay+0x4>
 8002bf6:	e7e9      	b.n	8002bcc <vTaskDelay+0x18>
 8002bf8:	20000be4 	.word	0x20000be4

08002bfc <vTaskSwitchContext>:
	if( uxSchedulerSuspended != ( UBaseType_t ) pdFALSE )
 8002bfc:	4b17      	ldr	r3, [pc, #92]	@ (8002c5c <vTaskSwitchContext+0x60>)
{
 8002bfe:	b510      	push	{r4, lr}
	if( uxSchedulerSuspended != ( UBaseType_t ) pdFALSE )
 8002c00:	681a      	ldr	r2, [r3, #0]
 8002c02:	4b17      	ldr	r3, [pc, #92]	@ (8002c60 <vTaskSwitchContext+0x64>)
 8002c04:	b112      	cbz	r2, 8002c0c <vTaskSwitchContext+0x10>
		xYieldPending = pdTRUE;
 8002c06:	2201      	movs	r2, #1
		taskSELECT_HIGHEST_PRIORITY_TASK();
 8002c08:	601a      	str	r2, [r3, #0]
}
 8002c0a:	bd10      	pop	{r4, pc}
		xYieldPending = pdFALSE;
 8002c0c:	601a      	str	r2, [r3, #0]
		taskSELECT_HIGHEST_PRIORITY_TASK();
 8002c0e:	4b15      	ldr	r3, [pc, #84]	@ (8002c64 <vTaskSwitchContext+0x68>)
 8002c10:	681a      	ldr	r2, [r3, #0]
		__asm volatile ( "clz %0, %1" : "=r" ( ucReturn ) : "r" ( ulBitmap ) : "memory" );
 8002c12:	fab2 f282 	clz	r2, r2
 8002c16:	2314      	movs	r3, #20
 8002c18:	b2d2      	uxtb	r2, r2
 8002c1a:	f1c2 021f 	rsb	r2, r2, #31
 8002c1e:	4353      	muls	r3, r2
 8002c20:	4911      	ldr	r1, [pc, #68]	@ (8002c68 <vTaskSwitchContext+0x6c>)
 8002c22:	58cc      	ldr	r4, [r1, r3]
 8002c24:	18c8      	adds	r0, r1, r3
 8002c26:	b944      	cbnz	r4, 8002c3a <vTaskSwitchContext+0x3e>
	__asm volatile
 8002c28:	f04f 0350 	mov.w	r3, #80	@ 0x50
 8002c2c:	f383 8811 	msr	BASEPRI, r3
 8002c30:	f3bf 8f6f 	isb	sy
 8002c34:	f3bf 8f4f 	dsb	sy
 8002c38:	e7fe      	b.n	8002c38 <vTaskSwitchContext+0x3c>
 8002c3a:	6844      	ldr	r4, [r0, #4]
 8002c3c:	3308      	adds	r3, #8
 8002c3e:	6864      	ldr	r4, [r4, #4]
 8002c40:	440b      	add	r3, r1
 8002c42:	429c      	cmp	r4, r3
 8002c44:	bf08      	it	eq
 8002c46:	6863      	ldreq	r3, [r4, #4]
 8002c48:	6044      	str	r4, [r0, #4]
 8002c4a:	bf08      	it	eq
 8002c4c:	6043      	streq	r3, [r0, #4]
 8002c4e:	2314      	movs	r3, #20
 8002c50:	fb03 1102 	mla	r1, r3, r2, r1
 8002c54:	684b      	ldr	r3, [r1, #4]
 8002c56:	68da      	ldr	r2, [r3, #12]
 8002c58:	4b04      	ldr	r3, [pc, #16]	@ (8002c6c <vTaskSwitchContext+0x70>)
 8002c5a:	e7d5      	b.n	8002c08 <vTaskSwitchContext+0xc>
 8002c5c:	20000be4 	.word	0x20000be4
 8002c60:	20000bf4 	.word	0x20000bf4
 8002c64:	20000c00 	.word	0x20000c00
 8002c68:	20000c7c 	.word	0x20000c7c
 8002c6c:	20000d08 	.word	0x20000d08

08002c70 <vTaskPlaceOnEventList>:
{
 8002c70:	b510      	push	{r4, lr}
 8002c72:	460c      	mov	r4, r1
	configASSERT( pxEventList );
 8002c74:	b940      	cbnz	r0, 8002c88 <vTaskPlaceOnEventList+0x18>
 8002c76:	f04f 0350 	mov.w	r3, #80	@ 0x50
 8002c7a:	f383 8811 	msr	BASEPRI, r3
 8002c7e:	f3bf 8f6f 	isb	sy
 8002c82:	f3bf 8f4f 	dsb	sy
 8002c86:	e7fe      	b.n	8002c86 <vTaskPlaceOnEventList+0x16>
	vListInsert( pxEventList, &( pxCurrentTCB->xEventListItem ) );
 8002c88:	4b05      	ldr	r3, [pc, #20]	@ (8002ca0 <vTaskPlaceOnEventList+0x30>)
 8002c8a:	6819      	ldr	r1, [r3, #0]
 8002c8c:	3118      	adds	r1, #24
 8002c8e:	f7ff f8db 	bl	8001e48 <vListInsert>
	prvAddCurrentTaskToDelayedList( xTicksToWait, pdTRUE );
 8002c92:	4620      	mov	r0, r4
}
 8002c94:	e8bd 4010 	ldmia.w	sp!, {r4, lr}
	prvAddCurrentTaskToDelayedList( xTicksToWait, pdTRUE );
 8002c98:	2101      	movs	r1, #1
 8002c9a:	f7ff bcdf 	b.w	800265c <prvAddCurrentTaskToDelayedList>
 8002c9e:	bf00      	nop
 8002ca0:	20000d08 	.word	0x20000d08

08002ca4 <vTaskPlaceOnEventListRestricted>:
	{
 8002ca4:	b538      	push	{r3, r4, r5, lr}
 8002ca6:	460d      	mov	r5, r1
 8002ca8:	4614      	mov	r4, r2
		configASSERT( pxEventList );
 8002caa:	b940      	cbnz	r0, 8002cbe <vTaskPlaceOnEventListRestricted+0x1a>
 8002cac:	f04f 0350 	mov.w	r3, #80	@ 0x50
 8002cb0:	f383 8811 	msr	BASEPRI, r3
 8002cb4:	f3bf 8f6f 	isb	sy
 8002cb8:	f3bf 8f4f 	dsb	sy
 8002cbc:	e7fe      	b.n	8002cbc <vTaskPlaceOnEventListRestricted+0x18>
		vListInsertEnd( pxEventList, &( pxCurrentTCB->xEventListItem ) );
 8002cbe:	4b08      	ldr	r3, [pc, #32]	@ (8002ce0 <vTaskPlaceOnEventListRestricted+0x3c>)
 8002cc0:	6819      	ldr	r1, [r3, #0]
 8002cc2:	3118      	adds	r1, #24
 8002cc4:	f7ff f8b5 	bl	8001e32 <vListInsertEnd>
			xTicksToWait = portMAX_DELAY;
 8002cc8:	2c00      	cmp	r4, #0
		prvAddCurrentTaskToDelayedList( xTicksToWait, xWaitIndefinitely );
 8002cca:	4621      	mov	r1, r4
 8002ccc:	bf08      	it	eq
 8002cce:	4628      	moveq	r0, r5
	}
 8002cd0:	e8bd 4038 	ldmia.w	sp!, {r3, r4, r5, lr}
		prvAddCurrentTaskToDelayedList( xTicksToWait, xWaitIndefinitely );
 8002cd4:	bf18      	it	ne
 8002cd6:	f04f 30ff 	movne.w	r0, #4294967295
 8002cda:	f7ff bcbf 	b.w	800265c <prvAddCurrentTaskToDelayedList>
 8002cde:	bf00      	nop
 8002ce0:	20000d08 	.word	0x20000d08

08002ce4 <xTaskRemoveFromEventList>:
{
 8002ce4:	b538      	push	{r3, r4, r5, lr}
	pxUnblockedTCB = ( TCB_t * ) listGET_OWNER_OF_HEAD_ENTRY( pxEventList );
 8002ce6:	68c3      	ldr	r3, [r0, #12]
 8002ce8:	68dc      	ldr	r4, [r3, #12]
	configASSERT( pxUnblockedTCB );
 8002cea:	b944      	cbnz	r4, 8002cfe <xTaskRemoveFromEventList+0x1a>
 8002cec:	f04f 0350 	mov.w	r3, #80	@ 0x50
 8002cf0:	f383 8811 	msr	BASEPRI, r3
 8002cf4:	f3bf 8f6f 	isb	sy
 8002cf8:	f3bf 8f4f 	dsb	sy
 8002cfc:	e7fe      	b.n	8002cfc <xTaskRemoveFromEventList+0x18>
	( void ) uxListRemove( &( pxUnblockedTCB->xEventListItem ) );
 8002cfe:	f104 0518 	add.w	r5, r4, #24
 8002d02:	4628      	mov	r0, r5
 8002d04:	f7ff f8b7 	bl	8001e76 <uxListRemove>
	if( uxSchedulerSuspended == ( UBaseType_t ) pdFALSE )
 8002d08:	4b11      	ldr	r3, [pc, #68]	@ (8002d50 <xTaskRemoveFromEventList+0x6c>)
 8002d0a:	681b      	ldr	r3, [r3, #0]
 8002d0c:	b9e3      	cbnz	r3, 8002d48 <xTaskRemoveFromEventList+0x64>
		( void ) uxListRemove( &( pxUnblockedTCB->xStateListItem ) );
 8002d0e:	1d25      	adds	r5, r4, #4
 8002d10:	4628      	mov	r0, r5
 8002d12:	f7ff f8b0 	bl	8001e76 <uxListRemove>
		prvAddTaskToReadyList( pxUnblockedTCB );
 8002d16:	2301      	movs	r3, #1
 8002d18:	490e      	ldr	r1, [pc, #56]	@ (8002d54 <xTaskRemoveFromEventList+0x70>)
 8002d1a:	6ae2      	ldr	r2, [r4, #44]	@ 0x2c
 8002d1c:	6808      	ldr	r0, [r1, #0]
 8002d1e:	4093      	lsls	r3, r2
 8002d20:	4303      	orrs	r3, r0
 8002d22:	2014      	movs	r0, #20
 8002d24:	600b      	str	r3, [r1, #0]
 8002d26:	4629      	mov	r1, r5
 8002d28:	4b0b      	ldr	r3, [pc, #44]	@ (8002d58 <xTaskRemoveFromEventList+0x74>)
 8002d2a:	fb00 3002 	mla	r0, r0, r2, r3
		vListInsertEnd( &( xPendingReadyList ), &( pxUnblockedTCB->xEventListItem ) );
 8002d2e:	f7ff f880 	bl	8001e32 <vListInsertEnd>
	if( pxUnblockedTCB->uxPriority > pxCurrentTCB->uxPriority )
 8002d32:	4b0a      	ldr	r3, [pc, #40]	@ (8002d5c <xTaskRemoveFromEventList+0x78>)
 8002d34:	6ae2      	ldr	r2, [r4, #44]	@ 0x2c
 8002d36:	681b      	ldr	r3, [r3, #0]
 8002d38:	6adb      	ldr	r3, [r3, #44]	@ 0x2c
 8002d3a:	429a      	cmp	r2, r3
		xYieldPending = pdTRUE;
 8002d3c:	bf85      	ittet	hi
 8002d3e:	2001      	movhi	r0, #1
 8002d40:	4b07      	ldrhi	r3, [pc, #28]	@ (8002d60 <xTaskRemoveFromEventList+0x7c>)
		xReturn = pdFALSE;
 8002d42:	2000      	movls	r0, #0
		xYieldPending = pdTRUE;
 8002d44:	6018      	strhi	r0, [r3, #0]
}
 8002d46:	bd38      	pop	{r3, r4, r5, pc}
		vListInsertEnd( &( xPendingReadyList ), &( pxUnblockedTCB->xEventListItem ) );
 8002d48:	4629      	mov	r1, r5
 8002d4a:	4806      	ldr	r0, [pc, #24]	@ (8002d64 <xTaskRemoveFromEventList+0x80>)
 8002d4c:	e7ef      	b.n	8002d2e <xTaskRemoveFromEventList+0x4a>
 8002d4e:	bf00      	nop
 8002d50:	20000be4 	.word	0x20000be4
 8002d54:	20000c00 	.word	0x20000c00
 8002d58:	20000c7c 	.word	0x20000c7c
 8002d5c:	20000d08 	.word	0x20000d08
 8002d60:	20000bf4 	.word	0x20000bf4
 8002d64:	20000c38 	.word	0x20000c38

08002d68 <vTaskInternalSetTimeOutState>:
	pxTimeOut->xOverflowCount = xNumOfOverflows;
 8002d68:	4b03      	ldr	r3, [pc, #12]	@ (8002d78 <vTaskInternalSetTimeOutState+0x10>)
 8002d6a:	681b      	ldr	r3, [r3, #0]
 8002d6c:	6003      	str	r3, [r0, #0]
	pxTimeOut->xTimeOnEntering = xTickCount;
 8002d6e:	4b03      	ldr	r3, [pc, #12]	@ (8002d7c <vTaskInternalSetTimeOutState+0x14>)
 8002d70:	681b      	ldr	r3, [r3, #0]
 8002d72:	6043      	str	r3, [r0, #4]
}
 8002d74:	4770      	bx	lr
 8002d76:	bf00      	nop
 8002d78:	20000bf0 	.word	0x20000bf0
 8002d7c:	20000c04 	.word	0x20000c04

08002d80 <xTaskCheckForTimeOut>:
{
 8002d80:	b570      	push	{r4, r5, r6, lr}
 8002d82:	460c      	mov	r4, r1
	configASSERT( pxTimeOut );
 8002d84:	4605      	mov	r5, r0
 8002d86:	b940      	cbnz	r0, 8002d9a <xTaskCheckForTimeOut+0x1a>
 8002d88:	f04f 0350 	mov.w	r3, #80	@ 0x50
 8002d8c:	f383 8811 	msr	BASEPRI, r3
 8002d90:	f3bf 8f6f 	isb	sy
 8002d94:	f3bf 8f4f 	dsb	sy
 8002d98:	e7fe      	b.n	8002d98 <xTaskCheckForTimeOut+0x18>
	configASSERT( pxTicksToWait );
 8002d9a:	b941      	cbnz	r1, 8002dae <xTaskCheckForTimeOut+0x2e>
 8002d9c:	f04f 0350 	mov.w	r3, #80	@ 0x50
 8002da0:	f383 8811 	msr	BASEPRI, r3
 8002da4:	f3bf 8f6f 	isb	sy
 8002da8:	f3bf 8f4f 	dsb	sy
 8002dac:	e7fe      	b.n	8002dac <xTaskCheckForTimeOut+0x2c>
	taskENTER_CRITICAL();
 8002dae:	f000 fb29 	bl	8003404 <vPortEnterCritical>
		const TickType_t xConstTickCount = xTickCount;
 8002db2:	4b0f      	ldr	r3, [pc, #60]	@ (8002df0 <xTaskCheckForTimeOut+0x70>)
 8002db4:	6819      	ldr	r1, [r3, #0]
			if( *pxTicksToWait == portMAX_DELAY )
 8002db6:	6823      	ldr	r3, [r4, #0]
 8002db8:	1c5a      	adds	r2, r3, #1
 8002dba:	d010      	beq.n	8002dde <xTaskCheckForTimeOut+0x5e>
		if( ( xNumOfOverflows != pxTimeOut->xOverflowCount ) && ( xConstTickCount >= pxTimeOut->xTimeOnEntering ) ) /*lint !e525 Indentation preferred as is to make code within pre-processor directives clearer. */
 8002dbc:	480d      	ldr	r0, [pc, #52]	@ (8002df4 <xTaskCheckForTimeOut+0x74>)
 8002dbe:	682e      	ldr	r6, [r5, #0]
 8002dc0:	6800      	ldr	r0, [r0, #0]
		const TickType_t xElapsedTime = xConstTickCount - pxTimeOut->xTimeOnEntering;
 8002dc2:	686a      	ldr	r2, [r5, #4]
		if( ( xNumOfOverflows != pxTimeOut->xOverflowCount ) && ( xConstTickCount >= pxTimeOut->xTimeOnEntering ) ) /*lint !e525 Indentation preferred as is to make code within pre-processor directives clearer. */
 8002dc4:	4286      	cmp	r6, r0
 8002dc6:	d001      	beq.n	8002dcc <xTaskCheckForTimeOut+0x4c>
 8002dc8:	428a      	cmp	r2, r1
 8002dca:	d90f      	bls.n	8002dec <xTaskCheckForTimeOut+0x6c>
		const TickType_t xElapsedTime = xConstTickCount - pxTimeOut->xTimeOnEntering;
 8002dcc:	1a88      	subs	r0, r1, r2
		else if( xElapsedTime < *pxTicksToWait ) /*lint !e961 Explicit casting is only redundant with some compilers, whereas others require it to prevent integer conversion errors. */
 8002dce:	4283      	cmp	r3, r0
 8002dd0:	d90a      	bls.n	8002de8 <xTaskCheckForTimeOut+0x68>
			*pxTicksToWait -= xElapsedTime;
 8002dd2:	1a5b      	subs	r3, r3, r1
 8002dd4:	4413      	add	r3, r2
			vTaskInternalSetTimeOutState( pxTimeOut );
 8002dd6:	4628      	mov	r0, r5
			*pxTicksToWait -= xElapsedTime;
 8002dd8:	6023      	str	r3, [r4, #0]
			vTaskInternalSetTimeOutState( pxTimeOut );
 8002dda:	f7ff ffc5 	bl	8002d68 <vTaskInternalSetTimeOutState>
				xReturn = pdFALSE;
 8002dde:	2400      	movs	r4, #0
	taskEXIT_CRITICAL();
 8002de0:	f000 fb30 	bl	8003444 <vPortExitCritical>
}
 8002de4:	4620      	mov	r0, r4
 8002de6:	bd70      	pop	{r4, r5, r6, pc}
			*pxTicksToWait = 0;
 8002de8:	2300      	movs	r3, #0
 8002dea:	6023      	str	r3, [r4, #0]
			xReturn = pdTRUE;
 8002dec:	2401      	movs	r4, #1
 8002dee:	e7f7      	b.n	8002de0 <xTaskCheckForTimeOut+0x60>
 8002df0:	20000c04 	.word	0x20000c04
 8002df4:	20000bf0 	.word	0x20000bf0

08002df8 <vTaskMissedYield>:
	xYieldPending = pdTRUE;
 8002df8:	2201      	movs	r2, #1
 8002dfa:	4b01      	ldr	r3, [pc, #4]	@ (8002e00 <vTaskMissedYield+0x8>)
 8002dfc:	601a      	str	r2, [r3, #0]
}
 8002dfe:	4770      	bx	lr
 8002e00:	20000bf4 	.word	0x20000bf4

08002e04 <xTaskGetSchedulerState>:
		if( xSchedulerRunning == pdFALSE )
 8002e04:	4b05      	ldr	r3, [pc, #20]	@ (8002e1c <xTaskGetSchedulerState+0x18>)
 8002e06:	681b      	ldr	r3, [r3, #0]
 8002e08:	b133      	cbz	r3, 8002e18 <xTaskGetSchedulerState+0x14>
			if( uxSchedulerSuspended == ( UBaseType_t ) pdFALSE )
 8002e0a:	4b05      	ldr	r3, [pc, #20]	@ (8002e20 <xTaskGetSchedulerState+0x1c>)
 8002e0c:	6818      	ldr	r0, [r3, #0]
 8002e0e:	fab0 f080 	clz	r0, r0
 8002e12:	0940      	lsrs	r0, r0, #5
 8002e14:	0040      	lsls	r0, r0, #1
 8002e16:	4770      	bx	lr
			xReturn = taskSCHEDULER_NOT_STARTED;
 8002e18:	2001      	movs	r0, #1
	}
 8002e1a:	4770      	bx	lr
 8002e1c:	20000bfc 	.word	0x20000bfc
 8002e20:	20000be4 	.word	0x20000be4

08002e24 <xTaskPriorityDisinherit>:
	{
 8002e24:	b5f8      	push	{r3, r4, r5, r6, r7, lr}
		if( pxMutexHolder != NULL )
 8002e26:	4604      	mov	r4, r0
 8002e28:	b908      	cbnz	r0, 8002e2e <xTaskPriorityDisinherit+0xa>
	BaseType_t xReturn = pdFALSE;
 8002e2a:	2000      	movs	r0, #0
	}
 8002e2c:	bdf8      	pop	{r3, r4, r5, r6, r7, pc}
			configASSERT( pxTCB == pxCurrentTCB );
 8002e2e:	4b22      	ldr	r3, [pc, #136]	@ (8002eb8 <xTaskPriorityDisinherit+0x94>)
 8002e30:	681b      	ldr	r3, [r3, #0]
 8002e32:	4283      	cmp	r3, r0
 8002e34:	d008      	beq.n	8002e48 <xTaskPriorityDisinherit+0x24>
 8002e36:	f04f 0350 	mov.w	r3, #80	@ 0x50
 8002e3a:	f383 8811 	msr	BASEPRI, r3
 8002e3e:	f3bf 8f6f 	isb	sy
 8002e42:	f3bf 8f4f 	dsb	sy
 8002e46:	e7fe      	b.n	8002e46 <xTaskPriorityDisinherit+0x22>
			configASSERT( pxTCB->uxMutexesHeld );
 8002e48:	6c9b      	ldr	r3, [r3, #72]	@ 0x48
 8002e4a:	b943      	cbnz	r3, 8002e5e <xTaskPriorityDisinherit+0x3a>
 8002e4c:	f04f 0350 	mov.w	r3, #80	@ 0x50
 8002e50:	f383 8811 	msr	BASEPRI, r3
 8002e54:	f3bf 8f6f 	isb	sy
 8002e58:	f3bf 8f4f 	dsb	sy
 8002e5c:	e7fe      	b.n	8002e5c <xTaskPriorityDisinherit+0x38>
			if( pxTCB->uxPriority != pxTCB->uxBasePriority )
 8002e5e:	6ac1      	ldr	r1, [r0, #44]	@ 0x2c
 8002e60:	6c42      	ldr	r2, [r0, #68]	@ 0x44
			( pxTCB->uxMutexesHeld )--;
 8002e62:	3b01      	subs	r3, #1
			if( pxTCB->uxPriority != pxTCB->uxBasePriority )
 8002e64:	4291      	cmp	r1, r2
			( pxTCB->uxMutexesHeld )--;
 8002e66:	6483      	str	r3, [r0, #72]	@ 0x48
			if( pxTCB->uxPriority != pxTCB->uxBasePriority )
 8002e68:	d0df      	beq.n	8002e2a <xTaskPriorityDisinherit+0x6>
				if( pxTCB->uxMutexesHeld == ( UBaseType_t ) 0 )
 8002e6a:	2b00      	cmp	r3, #0
 8002e6c:	d1dd      	bne.n	8002e2a <xTaskPriorityDisinherit+0x6>
					if( uxListRemove( &( pxTCB->xStateListItem ) ) == ( UBaseType_t ) 0 )
 8002e6e:	1d06      	adds	r6, r0, #4
 8002e70:	4630      	mov	r0, r6
 8002e72:	f7ff f800 	bl	8001e76 <uxListRemove>
 8002e76:	4f11      	ldr	r7, [pc, #68]	@ (8002ebc <xTaskPriorityDisinherit+0x98>)
 8002e78:	4a11      	ldr	r2, [pc, #68]	@ (8002ec0 <xTaskPriorityDisinherit+0x9c>)
 8002e7a:	b950      	cbnz	r0, 8002e92 <xTaskPriorityDisinherit+0x6e>
						taskRESET_READY_PRIORITY( pxTCB->uxPriority );
 8002e7c:	2314      	movs	r3, #20
 8002e7e:	6ae1      	ldr	r1, [r4, #44]	@ 0x2c
 8002e80:	434b      	muls	r3, r1
 8002e82:	58fb      	ldr	r3, [r7, r3]
 8002e84:	b92b      	cbnz	r3, 8002e92 <xTaskPriorityDisinherit+0x6e>
 8002e86:	2501      	movs	r5, #1
 8002e88:	6813      	ldr	r3, [r2, #0]
 8002e8a:	408d      	lsls	r5, r1
 8002e8c:	ea23 0305 	bic.w	r3, r3, r5
 8002e90:	6013      	str	r3, [r2, #0]
					pxTCB->uxPriority = pxTCB->uxBasePriority;
 8002e92:	6c63      	ldr	r3, [r4, #68]	@ 0x44
					prvAddTaskToReadyList( pxTCB );
 8002e94:	2014      	movs	r0, #20
					listSET_LIST_ITEM_VALUE( &( pxTCB->xEventListItem ), ( TickType_t ) configMAX_PRIORITIES - ( TickType_t ) pxTCB->uxPriority ); /*lint !e961 MISRA exception as the casts are only redundant for some ports. */
 8002e96:	f1c3 0107 	rsb	r1, r3, #7
 8002e9a:	61a1      	str	r1, [r4, #24]
					pxTCB->uxPriority = pxTCB->uxBasePriority;
 8002e9c:	62e3      	str	r3, [r4, #44]	@ 0x2c
					prvAddTaskToReadyList( pxTCB );
 8002e9e:	2401      	movs	r4, #1
 8002ea0:	6811      	ldr	r1, [r2, #0]
 8002ea2:	fa04 f503 	lsl.w	r5, r4, r3
 8002ea6:	fb00 7003 	mla	r0, r0, r3, r7
 8002eaa:	430d      	orrs	r5, r1
 8002eac:	4631      	mov	r1, r6
 8002eae:	6015      	str	r5, [r2, #0]
 8002eb0:	f7fe ffbf 	bl	8001e32 <vListInsertEnd>
					xReturn = pdTRUE;
 8002eb4:	4620      	mov	r0, r4
		return xReturn;
 8002eb6:	e7b9      	b.n	8002e2c <xTaskPriorityDisinherit+0x8>
 8002eb8:	20000d08 	.word	0x20000d08
 8002ebc:	20000c7c 	.word	0x20000c7c
 8002ec0:	20000c00 	.word	0x20000c00

08002ec4 <prvInsertTimerInActiveList>:
BaseType_t xProcessTimerNow = pdFALSE;

	listSET_LIST_ITEM_VALUE( &( pxTimer->xTimerListItem ), xNextExpiryTime );
	listSET_LIST_ITEM_OWNER( &( pxTimer->xTimerListItem ), pxTimer );

	if( xNextExpiryTime <= xTimeNow )
 8002ec4:	4291      	cmp	r1, r2
{
 8002ec6:	b508      	push	{r3, lr}
	listSET_LIST_ITEM_VALUE( &( pxTimer->xTimerListItem ), xNextExpiryTime );
 8002ec8:	6041      	str	r1, [r0, #4]
	listSET_LIST_ITEM_OWNER( &( pxTimer->xTimerListItem ), pxTimer );
 8002eca:	6100      	str	r0, [r0, #16]
	if( xNextExpiryTime <= xTimeNow )
 8002ecc:	d80a      	bhi.n	8002ee4 <prvInsertTimerInActiveList+0x20>
	{
		/* Has the expiry time elapsed between the command to start/reset a
		timer was issued, and the time the command was processed? */
		if( ( ( TickType_t ) ( xTimeNow - xCommandTime ) ) >= pxTimer->xTimerPeriodInTicks ) /*lint !e961 MISRA exception as the casts are only redundant for some ports. */
 8002ece:	1ad2      	subs	r2, r2, r3
 8002ed0:	6983      	ldr	r3, [r0, #24]
 8002ed2:	429a      	cmp	r2, r3
 8002ed4:	d20d      	bcs.n	8002ef2 <prvInsertTimerInActiveList+0x2e>
			processed actually exceeds the timers period.  */
			xProcessTimerNow = pdTRUE;
		}
		else
		{
			vListInsert( pxOverflowTimerList, &( pxTimer->xTimerListItem ) );
 8002ed6:	4b08      	ldr	r3, [pc, #32]	@ (8002ef8 <prvInsertTimerInActiveList+0x34>)
 8002ed8:	1d01      	adds	r1, r0, #4
			its expiry time and should be processed immediately. */
			xProcessTimerNow = pdTRUE;
		}
		else
		{
			vListInsert( pxCurrentTimerList, &( pxTimer->xTimerListItem ) );
 8002eda:	6818      	ldr	r0, [r3, #0]
 8002edc:	f7fe ffb4 	bl	8001e48 <vListInsert>
BaseType_t xProcessTimerNow = pdFALSE;
 8002ee0:	2000      	movs	r0, #0
		}
	}

	return xProcessTimerNow;
}
 8002ee2:	bd08      	pop	{r3, pc}
		if( ( xTimeNow < xCommandTime ) && ( xNextExpiryTime >= xCommandTime ) )
 8002ee4:	429a      	cmp	r2, r3
 8002ee6:	d201      	bcs.n	8002eec <prvInsertTimerInActiveList+0x28>
 8002ee8:	4299      	cmp	r1, r3
 8002eea:	d202      	bcs.n	8002ef2 <prvInsertTimerInActiveList+0x2e>
			vListInsert( pxCurrentTimerList, &( pxTimer->xTimerListItem ) );
 8002eec:	4b03      	ldr	r3, [pc, #12]	@ (8002efc <prvInsertTimerInActiveList+0x38>)
 8002eee:	1d01      	adds	r1, r0, #4
 8002ef0:	e7f3      	b.n	8002eda <prvInsertTimerInActiveList+0x16>
			xProcessTimerNow = pdTRUE;
 8002ef2:	2001      	movs	r0, #1
	return xProcessTimerNow;
 8002ef4:	e7f5      	b.n	8002ee2 <prvInsertTimerInActiveList+0x1e>
 8002ef6:	bf00      	nop
 8002ef8:	20000dd8 	.word	0x20000dd8
 8002efc:	20000ddc 	.word	0x20000ddc

08002f00 <prvCheckForValidListAndQueue>:
	pxOverflowTimerList = pxTemp;
}
/*-----------------------------------------------------------*/

static void prvCheckForValidListAndQueue( void )
{
 8002f00:	b5f7      	push	{r0, r1, r2, r4, r5, r6, r7, lr}
	/* Check that the list from which active timers are referenced, and the
	queue used to communicate with the timer service, have been
	initialised. */
	taskENTER_CRITICAL();
	{
		if( xTimerQueue == NULL )
 8002f02:	4c11      	ldr	r4, [pc, #68]	@ (8002f48 <prvCheckForValidListAndQueue+0x48>)
	taskENTER_CRITICAL();
 8002f04:	f000 fa7e 	bl	8003404 <vPortEnterCritical>
		if( xTimerQueue == NULL )
 8002f08:	6825      	ldr	r5, [r4, #0]
 8002f0a:	b9bd      	cbnz	r5, 8002f3c <prvCheckForValidListAndQueue+0x3c>
		{
			vListInitialise( &xActiveTimerList1 );
 8002f0c:	4f0f      	ldr	r7, [pc, #60]	@ (8002f4c <prvCheckForValidListAndQueue+0x4c>)
			vListInitialise( &xActiveTimerList2 );
 8002f0e:	4e10      	ldr	r6, [pc, #64]	@ (8002f50 <prvCheckForValidListAndQueue+0x50>)
			vListInitialise( &xActiveTimerList1 );
 8002f10:	4638      	mov	r0, r7
 8002f12:	f7fe ff80 	bl	8001e16 <vListInitialise>
			vListInitialise( &xActiveTimerList2 );
 8002f16:	4630      	mov	r0, r6
 8002f18:	f7fe ff7d 	bl	8001e16 <vListInitialise>
			pxCurrentTimerList = &xActiveTimerList1;
 8002f1c:	4b0d      	ldr	r3, [pc, #52]	@ (8002f54 <prvCheckForValidListAndQueue+0x54>)
				/* The timer queue is allocated statically in case
				configSUPPORT_DYNAMIC_ALLOCATION is 0. */
				static StaticQueue_t xStaticTimerQueue; /*lint !e956 Ok to declare in this manner to prevent additional conditional compilation guards in other locations. */
				static uint8_t ucStaticTimerQueueStorage[ ( size_t ) configTIMER_QUEUE_LENGTH * sizeof( DaemonTaskMessage_t ) ]; /*lint !e956 Ok to declare in this manner to prevent additional conditional compilation guards in other locations. */

				xTimerQueue = xQueueCreateStatic( ( UBaseType_t ) configTIMER_QUEUE_LENGTH, ( UBaseType_t ) sizeof( DaemonTaskMessage_t ), &( ucStaticTimerQueueStorage[ 0 ] ), &xStaticTimerQueue );
 8002f1e:	210c      	movs	r1, #12
			pxCurrentTimerList = &xActiveTimerList1;
 8002f20:	601f      	str	r7, [r3, #0]
			pxOverflowTimerList = &xActiveTimerList2;
 8002f22:	4b0d      	ldr	r3, [pc, #52]	@ (8002f58 <prvCheckForValidListAndQueue+0x58>)
				xTimerQueue = xQueueCreateStatic( ( UBaseType_t ) configTIMER_QUEUE_LENGTH, ( UBaseType_t ) sizeof( DaemonTaskMessage_t ), &( ucStaticTimerQueueStorage[ 0 ] ), &xStaticTimerQueue );
 8002f24:	200a      	movs	r0, #10
			pxOverflowTimerList = &xActiveTimerList2;
 8002f26:	601e      	str	r6, [r3, #0]
				xTimerQueue = xQueueCreateStatic( ( UBaseType_t ) configTIMER_QUEUE_LENGTH, ( UBaseType_t ) sizeof( DaemonTaskMessage_t ), &( ucStaticTimerQueueStorage[ 0 ] ), &xStaticTimerQueue );
 8002f28:	4a0c      	ldr	r2, [pc, #48]	@ (8002f5c <prvCheckForValidListAndQueue+0x5c>)
 8002f2a:	4b0d      	ldr	r3, [pc, #52]	@ (8002f60 <prvCheckForValidListAndQueue+0x60>)
 8002f2c:	9500      	str	r5, [sp, #0]
 8002f2e:	f7ff f87b 	bl	8002028 <xQueueGenericCreateStatic>
 8002f32:	6020      	str	r0, [r4, #0]
			}
			#endif

			#if ( configQUEUE_REGISTRY_SIZE > 0 )
			{
				if( xTimerQueue != NULL )
 8002f34:	b110      	cbz	r0, 8002f3c <prvCheckForValidListAndQueue+0x3c>
				{
					vQueueAddToRegistry( xTimerQueue, "TmrQ" );
 8002f36:	490b      	ldr	r1, [pc, #44]	@ (8002f64 <prvCheckForValidListAndQueue+0x64>)
 8002f38:	f7ff fadc 	bl	80024f4 <vQueueAddToRegistry>
		{
			mtCOVERAGE_TEST_MARKER();
		}
	}
	taskEXIT_CRITICAL();
}
 8002f3c:	b003      	add	sp, #12
 8002f3e:	e8bd 40f0 	ldmia.w	sp!, {r4, r5, r6, r7, lr}
	taskEXIT_CRITICAL();
 8002f42:	f000 ba7f 	b.w	8003444 <vPortExitCritical>
 8002f46:	bf00      	nop
 8002f48:	20000dd4 	.word	0x20000dd4
 8002f4c:	20000df4 	.word	0x20000df4
 8002f50:	20000de0 	.word	0x20000de0
 8002f54:	20000ddc 	.word	0x20000ddc
 8002f58:	20000dd8 	.word	0x20000dd8
 8002f5c:	20000d54 	.word	0x20000d54
 8002f60:	20000d0c 	.word	0x20000d0c
 8002f64:	08005a5f 	.word	0x08005a5f

08002f68 <xTimerCreateTimerTask>:
{
 8002f68:	b510      	push	{r4, lr}
 8002f6a:	b088      	sub	sp, #32
	prvCheckForValidListAndQueue();
 8002f6c:	f7ff ffc8 	bl	8002f00 <prvCheckForValidListAndQueue>
	if( xTimerQueue != NULL )
 8002f70:	4b12      	ldr	r3, [pc, #72]	@ (8002fbc <xTimerCreateTimerTask+0x54>)
 8002f72:	681b      	ldr	r3, [r3, #0]
 8002f74:	b1b3      	cbz	r3, 8002fa4 <xTimerCreateTimerTask+0x3c>
			StaticTask_t *pxTimerTaskTCBBuffer = NULL;
 8002f76:	2400      	movs	r4, #0
			vApplicationGetTimerTaskMemory( &pxTimerTaskTCBBuffer, &pxTimerTaskStackBuffer, &ulTimerTaskStackSize );
 8002f78:	aa07      	add	r2, sp, #28
 8002f7a:	a906      	add	r1, sp, #24
 8002f7c:	a805      	add	r0, sp, #20
			StackType_t *pxTimerTaskStackBuffer = NULL;
 8002f7e:	e9cd 4405 	strd	r4, r4, [sp, #20]
			vApplicationGetTimerTaskMemory( &pxTimerTaskTCBBuffer, &pxTimerTaskStackBuffer, &ulTimerTaskStackSize );
 8002f82:	f7fd f8f1 	bl	8000168 <vApplicationGetTimerTaskMemory>
			xTimerTaskHandle = xTaskCreateStatic(	prvTimerTask,
 8002f86:	9b05      	ldr	r3, [sp, #20]
 8002f88:	9a07      	ldr	r2, [sp, #28]
 8002f8a:	9302      	str	r3, [sp, #8]
 8002f8c:	9b06      	ldr	r3, [sp, #24]
 8002f8e:	490c      	ldr	r1, [pc, #48]	@ (8002fc0 <xTimerCreateTimerTask+0x58>)
 8002f90:	9301      	str	r3, [sp, #4]
 8002f92:	2302      	movs	r3, #2
 8002f94:	480b      	ldr	r0, [pc, #44]	@ (8002fc4 <xTimerCreateTimerTask+0x5c>)
 8002f96:	9300      	str	r3, [sp, #0]
 8002f98:	4623      	mov	r3, r4
 8002f9a:	f7ff fc42 	bl	8002822 <xTaskCreateStatic>
 8002f9e:	4b0a      	ldr	r3, [pc, #40]	@ (8002fc8 <xTimerCreateTimerTask+0x60>)
 8002fa0:	6018      	str	r0, [r3, #0]
			if( xTimerTaskHandle != NULL )
 8002fa2:	b940      	cbnz	r0, 8002fb6 <xTimerCreateTimerTask+0x4e>
 8002fa4:	f04f 0350 	mov.w	r3, #80	@ 0x50
 8002fa8:	f383 8811 	msr	BASEPRI, r3
 8002fac:	f3bf 8f6f 	isb	sy
 8002fb0:	f3bf 8f4f 	dsb	sy
	configASSERT( xReturn );
 8002fb4:	e7fe      	b.n	8002fb4 <xTimerCreateTimerTask+0x4c>
}
 8002fb6:	2001      	movs	r0, #1
 8002fb8:	b008      	add	sp, #32
 8002fba:	bd10      	pop	{r4, pc}
 8002fbc:	20000dd4 	.word	0x20000dd4
 8002fc0:	08005a64 	.word	0x08005a64
 8002fc4:	08003189 	.word	0x08003189
 8002fc8:	20000dd0 	.word	0x20000dd0

08002fcc <xTimerCreate>:
	{
 8002fcc:	e92d 41f0 	stmdb	sp!, {r4, r5, r6, r7, r8, lr}
 8002fd0:	4680      	mov	r8, r0
		pxNewTimer = ( Timer_t * ) pvPortMalloc( sizeof( Timer_t ) );
 8002fd2:	202c      	movs	r0, #44	@ 0x2c
	{
 8002fd4:	460d      	mov	r5, r1
 8002fd6:	4617      	mov	r7, r2
 8002fd8:	461e      	mov	r6, r3
		pxNewTimer = ( Timer_t * ) pvPortMalloc( sizeof( Timer_t ) );
 8002fda:	f000 fb3f 	bl	800365c <pvPortMalloc>
		if( pxNewTimer != NULL )
 8002fde:	4604      	mov	r4, r0
 8002fe0:	b1c0      	cbz	r0, 8003014 <xTimerCreate+0x48>
	configASSERT( ( xTimerPeriodInTicks > 0 ) );
 8002fe2:	b945      	cbnz	r5, 8002ff6 <xTimerCreate+0x2a>
 8002fe4:	f04f 0350 	mov.w	r3, #80	@ 0x50
 8002fe8:	f383 8811 	msr	BASEPRI, r3
 8002fec:	f3bf 8f6f 	isb	sy
 8002ff0:	f3bf 8f4f 	dsb	sy
 8002ff4:	e7fe      	b.n	8002ff4 <xTimerCreate+0x28>
		prvCheckForValidListAndQueue();
 8002ff6:	f7ff ff83 	bl	8002f00 <prvCheckForValidListAndQueue>
		pxNewTimer->pxCallbackFunction = pxCallbackFunction;
 8002ffa:	9b06      	ldr	r3, [sp, #24]
		pxNewTimer->uxAutoReload = uxAutoReload;
 8002ffc:	e9c4 5706 	strd	r5, r7, [r4, #24]
		pxNewTimer->pxCallbackFunction = pxCallbackFunction;
 8003000:	6263      	str	r3, [r4, #36]	@ 0x24
		pxNewTimer->pcTimerName = pcTimerName;
 8003002:	f8c4 8000 	str.w	r8, [r4]
		pxNewTimer->pvTimerID = pvTimerID;
 8003006:	6226      	str	r6, [r4, #32]
		vListInitialiseItem( &( pxNewTimer->xTimerListItem ) );
 8003008:	1d20      	adds	r0, r4, #4
 800300a:	f7fe ff0f 	bl	8001e2c <vListInitialiseItem>
				pxNewTimer->ucStaticallyAllocated = pdFALSE;
 800300e:	2300      	movs	r3, #0
 8003010:	f884 3028 	strb.w	r3, [r4, #40]	@ 0x28
	}
 8003014:	4620      	mov	r0, r4
 8003016:	e8bd 81f0 	ldmia.w	sp!, {r4, r5, r6, r7, r8, pc}

0800301a <xTimerCreateStatic>:
	{
 800301a:	e92d 41f3 	stmdb	sp!, {r0, r1, r4, r5, r6, r7, r8, lr}
 800301e:	461e      	mov	r6, r3
			volatile size_t xSize = sizeof( StaticTimer_t );
 8003020:	232c      	movs	r3, #44	@ 0x2c
 8003022:	9301      	str	r3, [sp, #4]
			configASSERT( xSize == sizeof( Timer_t ) );
 8003024:	9b01      	ldr	r3, [sp, #4]
	{
 8003026:	4680      	mov	r8, r0
			configASSERT( xSize == sizeof( Timer_t ) );
 8003028:	2b2c      	cmp	r3, #44	@ 0x2c
	{
 800302a:	460d      	mov	r5, r1
 800302c:	4617      	mov	r7, r2
 800302e:	9c09      	ldr	r4, [sp, #36]	@ 0x24
			configASSERT( xSize == sizeof( Timer_t ) );
 8003030:	d008      	beq.n	8003044 <xTimerCreateStatic+0x2a>
 8003032:	f04f 0350 	mov.w	r3, #80	@ 0x50
 8003036:	f383 8811 	msr	BASEPRI, r3
 800303a:	f3bf 8f6f 	isb	sy
 800303e:	f3bf 8f4f 	dsb	sy
 8003042:	e7fe      	b.n	8003042 <xTimerCreateStatic+0x28>
		configASSERT( pxTimerBuffer );
 8003044:	b944      	cbnz	r4, 8003058 <xTimerCreateStatic+0x3e>
 8003046:	f04f 0350 	mov.w	r3, #80	@ 0x50
 800304a:	f383 8811 	msr	BASEPRI, r3
 800304e:	f3bf 8f6f 	isb	sy
 8003052:	f3bf 8f4f 	dsb	sy
 8003056:	e7fe      	b.n	8003056 <xTimerCreateStatic+0x3c>
	configASSERT( ( xTimerPeriodInTicks > 0 ) );
 8003058:	b941      	cbnz	r1, 800306c <xTimerCreateStatic+0x52>
 800305a:	f04f 0350 	mov.w	r3, #80	@ 0x50
 800305e:	f383 8811 	msr	BASEPRI, r3
 8003062:	f3bf 8f6f 	isb	sy
 8003066:	f3bf 8f4f 	dsb	sy
 800306a:	e7fe      	b.n	800306a <xTimerCreateStatic+0x50>
		prvCheckForValidListAndQueue();
 800306c:	f7ff ff48 	bl	8002f00 <prvCheckForValidListAndQueue>
		pxNewTimer->pxCallbackFunction = pxCallbackFunction;
 8003070:	9b08      	ldr	r3, [sp, #32]
		vListInitialiseItem( &( pxNewTimer->xTimerListItem ) );
 8003072:	1d20      	adds	r0, r4, #4
		pxNewTimer->pxCallbackFunction = pxCallbackFunction;
 8003074:	6263      	str	r3, [r4, #36]	@ 0x24
		pxNewTimer->uxAutoReload = uxAutoReload;
 8003076:	e9c4 5706 	strd	r5, r7, [r4, #24]
		pxNewTimer->pcTimerName = pcTimerName;
 800307a:	f8c4 8000 	str.w	r8, [r4]
		pxNewTimer->pvTimerID = pvTimerID;
 800307e:	6226      	str	r6, [r4, #32]
		vListInitialiseItem( &( pxNewTimer->xTimerListItem ) );
 8003080:	f7fe fed4 	bl	8001e2c <vListInitialiseItem>
				pxNewTimer->ucStaticallyAllocated = pdTRUE;
 8003084:	2301      	movs	r3, #1
	}
 8003086:	4620      	mov	r0, r4
				pxNewTimer->ucStaticallyAllocated = pdTRUE;
 8003088:	f884 3028 	strb.w	r3, [r4, #40]	@ 0x28
	}
 800308c:	b002      	add	sp, #8
 800308e:	e8bd 81f0 	ldmia.w	sp!, {r4, r5, r6, r7, r8, pc}
	...

08003094 <xTimerGenericCommand>:
{
 8003094:	b57f      	push	{r0, r1, r2, r3, r4, r5, r6, lr}
 8003096:	4616      	mov	r6, r2
	configASSERT( xTimer );
 8003098:	4604      	mov	r4, r0
{
 800309a:	461a      	mov	r2, r3
	configASSERT( xTimer );
 800309c:	b940      	cbnz	r0, 80030b0 <xTimerGenericCommand+0x1c>
 800309e:	f04f 0350 	mov.w	r3, #80	@ 0x50
 80030a2:	f383 8811 	msr	BASEPRI, r3
 80030a6:	f3bf 8f6f 	isb	sy
 80030aa:	f3bf 8f4f 	dsb	sy
 80030ae:	e7fe      	b.n	80030ae <xTimerGenericCommand+0x1a>
	if( xTimerQueue != NULL )
 80030b0:	4d0c      	ldr	r5, [pc, #48]	@ (80030e4 <xTimerGenericCommand+0x50>)
 80030b2:	6828      	ldr	r0, [r5, #0]
 80030b4:	b178      	cbz	r0, 80030d6 <xTimerGenericCommand+0x42>
		if( xCommandID < tmrFIRST_FROM_ISR_COMMAND )
 80030b6:	2905      	cmp	r1, #5
		xMessage.u.xTimerParameters.xMessageValue = xOptionalValue;
 80030b8:	e9cd 1601 	strd	r1, r6, [sp, #4]
		xMessage.u.xTimerParameters.pxTimer = ( Timer_t * ) xTimer;
 80030bc:	9403      	str	r4, [sp, #12]
		if( xCommandID < tmrFIRST_FROM_ISR_COMMAND )
 80030be:	dc0c      	bgt.n	80030da <xTimerGenericCommand+0x46>
			if( xTaskGetSchedulerState() == taskSCHEDULER_RUNNING )
 80030c0:	f7ff fea0 	bl	8002e04 <xTaskGetSchedulerState>
				xReturn = xQueueSendToBack( xTimerQueue, &xMessage, xTicksToWait );
 80030c4:	2300      	movs	r3, #0
			if( xTaskGetSchedulerState() == taskSCHEDULER_RUNNING )
 80030c6:	2802      	cmp	r0, #2
				xReturn = xQueueSendToBack( xTimerQueue, &xMessage, tmrNO_DELAY );
 80030c8:	bf14      	ite	ne
 80030ca:	461a      	movne	r2, r3
				xReturn = xQueueSendToBack( xTimerQueue, &xMessage, xTicksToWait );
 80030cc:	9a08      	ldreq	r2, [sp, #32]
				xReturn = xQueueSendToBack( xTimerQueue, &xMessage, tmrNO_DELAY );
 80030ce:	6828      	ldr	r0, [r5, #0]
 80030d0:	a901      	add	r1, sp, #4
 80030d2:	f7ff f816 	bl	8002102 <xQueueGenericSend>
}
 80030d6:	b004      	add	sp, #16
 80030d8:	bd70      	pop	{r4, r5, r6, pc}
			xReturn = xQueueSendToBackFromISR( xTimerQueue, &xMessage, pxHigherPriorityTaskWoken );
 80030da:	2300      	movs	r3, #0
 80030dc:	a901      	add	r1, sp, #4
 80030de:	f7ff f8c2 	bl	8002266 <xQueueGenericSendFromISR>
 80030e2:	e7f8      	b.n	80030d6 <xTimerGenericCommand+0x42>
 80030e4:	20000dd4 	.word	0x20000dd4

080030e8 <prvSampleTimeNow>:
{
 80030e8:	e92d 47f3 	stmdb	sp!, {r0, r1, r4, r5, r6, r7, r8, r9, sl, lr}
 80030ec:	4606      	mov	r6, r0
	xTimeNow = xTaskGetTickCount();
 80030ee:	f7ff fc4b 	bl	8002988 <xTaskGetTickCount>
	if( xTimeNow < xLastTime )
 80030f2:	f8df 8088 	ldr.w	r8, [pc, #136]	@ 800317c <prvSampleTimeNow+0x94>
	xTimeNow = xTaskGetTickCount();
 80030f6:	4605      	mov	r5, r0
	if( xTimeNow < xLastTime )
 80030f8:	f8d8 3000 	ldr.w	r3, [r8]
 80030fc:	4283      	cmp	r3, r0
 80030fe:	d909      	bls.n	8003114 <prvSampleTimeNow+0x2c>
	while( listLIST_IS_EMPTY( pxCurrentTimerList ) == pdFALSE )
 8003100:	4f1f      	ldr	r7, [pc, #124]	@ (8003180 <prvSampleTimeNow+0x98>)
 8003102:	683b      	ldr	r3, [r7, #0]
 8003104:	681a      	ldr	r2, [r3, #0]
 8003106:	b96a      	cbnz	r2, 8003124 <prvSampleTimeNow+0x3c>
	pxCurrentTimerList = pxOverflowTimerList;
 8003108:	4a1e      	ldr	r2, [pc, #120]	@ (8003184 <prvSampleTimeNow+0x9c>)
 800310a:	6811      	ldr	r1, [r2, #0]
	pxOverflowTimerList = pxTemp;
 800310c:	6013      	str	r3, [r2, #0]
	pxCurrentTimerList = pxOverflowTimerList;
 800310e:	6039      	str	r1, [r7, #0]
		*pxTimerListsWereSwitched = pdTRUE;
 8003110:	2301      	movs	r3, #1
 8003112:	e000      	b.n	8003116 <prvSampleTimeNow+0x2e>
 8003114:	2300      	movs	r3, #0
}
 8003116:	4628      	mov	r0, r5
		*pxTimerListsWereSwitched = pdTRUE;
 8003118:	6033      	str	r3, [r6, #0]
	xLastTime = xTimeNow;
 800311a:	f8c8 5000 	str.w	r5, [r8]
}
 800311e:	b002      	add	sp, #8
 8003120:	e8bd 87f0 	ldmia.w	sp!, {r4, r5, r6, r7, r8, r9, sl, pc}
		xNextExpireTime = listGET_ITEM_VALUE_OF_HEAD_ENTRY( pxCurrentTimerList );
 8003124:	68db      	ldr	r3, [r3, #12]
		pxTimer = ( Timer_t * ) listGET_OWNER_OF_HEAD_ENTRY( pxCurrentTimerList );
 8003126:	68dc      	ldr	r4, [r3, #12]
		xNextExpireTime = listGET_ITEM_VALUE_OF_HEAD_ENTRY( pxCurrentTimerList );
 8003128:	f8d3 9000 	ldr.w	r9, [r3]
		( void ) uxListRemove( &( pxTimer->xTimerListItem ) );
 800312c:	f104 0a04 	add.w	sl, r4, #4
 8003130:	4650      	mov	r0, sl
 8003132:	f7fe fea0 	bl	8001e76 <uxListRemove>
		pxTimer->pxCallbackFunction( ( TimerHandle_t ) pxTimer );
 8003136:	6a63      	ldr	r3, [r4, #36]	@ 0x24
 8003138:	4620      	mov	r0, r4
 800313a:	4798      	blx	r3
		if( pxTimer->uxAutoReload == ( UBaseType_t ) pdTRUE )
 800313c:	69e3      	ldr	r3, [r4, #28]
 800313e:	2b01      	cmp	r3, #1
 8003140:	d1df      	bne.n	8003102 <prvSampleTimeNow+0x1a>
			xReloadTime = ( xNextExpireTime + pxTimer->xTimerPeriodInTicks );
 8003142:	69a3      	ldr	r3, [r4, #24]
 8003144:	444b      	add	r3, r9
			if( xReloadTime > xNextExpireTime )
 8003146:	4599      	cmp	r9, r3
 8003148:	d206      	bcs.n	8003158 <prvSampleTimeNow+0x70>
				vListInsert( pxCurrentTimerList, &( pxTimer->xTimerListItem ) );
 800314a:	4651      	mov	r1, sl
 800314c:	6838      	ldr	r0, [r7, #0]
				listSET_LIST_ITEM_VALUE( &( pxTimer->xTimerListItem ), xReloadTime );
 800314e:	6063      	str	r3, [r4, #4]
				listSET_LIST_ITEM_OWNER( &( pxTimer->xTimerListItem ), pxTimer );
 8003150:	6124      	str	r4, [r4, #16]
				vListInsert( pxCurrentTimerList, &( pxTimer->xTimerListItem ) );
 8003152:	f7fe fe79 	bl	8001e48 <vListInsert>
 8003156:	e7d4      	b.n	8003102 <prvSampleTimeNow+0x1a>
				xResult = xTimerGenericCommand( pxTimer, tmrCOMMAND_START_DONT_TRACE, xNextExpireTime, NULL, tmrNO_DELAY );
 8003158:	2300      	movs	r3, #0
 800315a:	464a      	mov	r2, r9
 800315c:	4619      	mov	r1, r3
 800315e:	4620      	mov	r0, r4
 8003160:	9300      	str	r3, [sp, #0]
 8003162:	f7ff ff97 	bl	8003094 <xTimerGenericCommand>
				configASSERT( xResult );
 8003166:	2800      	cmp	r0, #0
 8003168:	d1cb      	bne.n	8003102 <prvSampleTimeNow+0x1a>
 800316a:	f04f 0350 	mov.w	r3, #80	@ 0x50
 800316e:	f383 8811 	msr	BASEPRI, r3
 8003172:	f3bf 8f6f 	isb	sy
 8003176:	f3bf 8f4f 	dsb	sy
 800317a:	e7fe      	b.n	800317a <prvSampleTimeNow+0x92>
 800317c:	20000dcc 	.word	0x20000dcc
 8003180:	20000ddc 	.word	0x20000ddc
 8003184:	20000dd8 	.word	0x20000dd8

08003188 <prvTimerTask>:
{
 8003188:	e92d 43f0 	stmdb	sp!, {r4, r5, r6, r7, r8, r9, lr}
	*pxListWasEmpty = listLIST_IS_EMPTY( pxCurrentTimerList );
 800318c:	4e64      	ldr	r6, [pc, #400]	@ (8003320 <prvTimerTask+0x198>)
				vQueueWaitForMessageRestricted( xTimerQueue, ( xNextExpireTime - xTimeNow ), xListWasEmpty );
 800318e:	4f65      	ldr	r7, [pc, #404]	@ (8003324 <prvTimerTask+0x19c>)
{
 8003190:	b087      	sub	sp, #28
	*pxListWasEmpty = listLIST_IS_EMPTY( pxCurrentTimerList );
 8003192:	6833      	ldr	r3, [r6, #0]
 8003194:	681d      	ldr	r5, [r3, #0]
	if( *pxListWasEmpty == pdFALSE )
 8003196:	2d00      	cmp	r5, #0
 8003198:	d033      	beq.n	8003202 <prvTimerTask+0x7a>
		xNextExpireTime = listGET_ITEM_VALUE_OF_HEAD_ENTRY( pxCurrentTimerList );
 800319a:	68db      	ldr	r3, [r3, #12]
 800319c:	f8d3 8000 	ldr.w	r8, [r3]
	vTaskSuspendAll();
 80031a0:	f7ff fbea 	bl	8002978 <vTaskSuspendAll>
		xTimeNow = prvSampleTimeNow( &xTimerListsWereSwitched );
 80031a4:	a803      	add	r0, sp, #12
 80031a6:	f7ff ff9f 	bl	80030e8 <prvSampleTimeNow>
		if( xTimerListsWereSwitched == pdFALSE )
 80031aa:	9c03      	ldr	r4, [sp, #12]
		xTimeNow = prvSampleTimeNow( &xTimerListsWereSwitched );
 80031ac:	4681      	mov	r9, r0
		if( xTimerListsWereSwitched == pdFALSE )
 80031ae:	2c00      	cmp	r4, #0
 80031b0:	d175      	bne.n	800329e <prvTimerTask+0x116>
			if( ( xListWasEmpty == pdFALSE ) && ( xNextExpireTime <= xTimeNow ) )
 80031b2:	2d00      	cmp	r5, #0
 80031b4:	d058      	beq.n	8003268 <prvTimerTask+0xe0>
 80031b6:	4540      	cmp	r0, r8
 80031b8:	d35c      	bcc.n	8003274 <prvTimerTask+0xec>
				( void ) xTaskResumeAll();
 80031ba:	f7ff fc85 	bl	8002ac8 <xTaskResumeAll>
Timer_t * const pxTimer = ( Timer_t * ) listGET_OWNER_OF_HEAD_ENTRY( pxCurrentTimerList );
 80031be:	6833      	ldr	r3, [r6, #0]
 80031c0:	68db      	ldr	r3, [r3, #12]
 80031c2:	68dd      	ldr	r5, [r3, #12]
	( void ) uxListRemove( &( pxTimer->xTimerListItem ) );
 80031c4:	1d28      	adds	r0, r5, #4
 80031c6:	f7fe fe56 	bl	8001e76 <uxListRemove>
	if( pxTimer->uxAutoReload == ( UBaseType_t ) pdTRUE )
 80031ca:	69eb      	ldr	r3, [r5, #28]
 80031cc:	2b01      	cmp	r3, #1
 80031ce:	d11a      	bne.n	8003206 <prvTimerTask+0x7e>
		if( prvInsertTimerInActiveList( pxTimer, ( xNextExpireTime + pxTimer->xTimerPeriodInTicks ), xTimeNow, xNextExpireTime ) != pdFALSE )
 80031d0:	69a9      	ldr	r1, [r5, #24]
 80031d2:	4643      	mov	r3, r8
 80031d4:	464a      	mov	r2, r9
 80031d6:	4628      	mov	r0, r5
 80031d8:	4441      	add	r1, r8
 80031da:	f7ff fe73 	bl	8002ec4 <prvInsertTimerInActiveList>
 80031de:	b190      	cbz	r0, 8003206 <prvTimerTask+0x7e>
			xResult = xTimerGenericCommand( pxTimer, tmrCOMMAND_START_DONT_TRACE, xNextExpireTime, NULL, tmrNO_DELAY );
 80031e0:	4623      	mov	r3, r4
 80031e2:	4642      	mov	r2, r8
 80031e4:	4621      	mov	r1, r4
 80031e6:	4628      	mov	r0, r5
 80031e8:	9400      	str	r4, [sp, #0]
 80031ea:	f7ff ff53 	bl	8003094 <xTimerGenericCommand>
			configASSERT( xResult );
 80031ee:	b950      	cbnz	r0, 8003206 <prvTimerTask+0x7e>
 80031f0:	f04f 0350 	mov.w	r3, #80	@ 0x50
 80031f4:	f383 8811 	msr	BASEPRI, r3
 80031f8:	f3bf 8f6f 	isb	sy
 80031fc:	f3bf 8f4f 	dsb	sy
 8003200:	e7fe      	b.n	8003200 <prvTimerTask+0x78>
		xNextExpireTime = ( TickType_t ) 0U;
 8003202:	46a8      	mov	r8, r5
 8003204:	e7cc      	b.n	80031a0 <prvTimerTask+0x18>
	pxTimer->pxCallbackFunction( ( TimerHandle_t ) pxTimer );
 8003206:	4628      	mov	r0, r5
 8003208:	6a6b      	ldr	r3, [r5, #36]	@ 0x24
 800320a:	4798      	blx	r3
	while( xQueueReceive( xTimerQueue, &xMessage, tmrNO_DELAY ) != pdFAIL ) /*lint !e603 xMessage does not have to be initialised as it is passed out, not in, and it is not used unless xQueueReceive() returns pdTRUE. */
 800320c:	2200      	movs	r2, #0
 800320e:	6838      	ldr	r0, [r7, #0]
 8003210:	a903      	add	r1, sp, #12
 8003212:	f7ff f884 	bl	800231e <xQueueReceive>
 8003216:	2800      	cmp	r0, #0
 8003218:	d0bb      	beq.n	8003192 <prvTimerTask+0xa>
		if( xMessage.xMessageID >= ( BaseType_t ) 0 )
 800321a:	9b03      	ldr	r3, [sp, #12]
 800321c:	2b00      	cmp	r3, #0
 800321e:	dbf5      	blt.n	800320c <prvTimerTask+0x84>
			pxTimer = xMessage.u.xTimerParameters.pxTimer;
 8003220:	9c05      	ldr	r4, [sp, #20]
			if( listIS_CONTAINED_WITHIN( NULL, &( pxTimer->xTimerListItem ) ) == pdFALSE ) /*lint !e961. The cast is only redundant when NULL is passed into the macro. */
 8003222:	6963      	ldr	r3, [r4, #20]
 8003224:	b113      	cbz	r3, 800322c <prvTimerTask+0xa4>
				( void ) uxListRemove( &( pxTimer->xTimerListItem ) );
 8003226:	1d20      	adds	r0, r4, #4
 8003228:	f7fe fe25 	bl	8001e76 <uxListRemove>
			xTimeNow = prvSampleTimeNow( &xTimerListsWereSwitched );
 800322c:	a802      	add	r0, sp, #8
 800322e:	f7ff ff5b 	bl	80030e8 <prvSampleTimeNow>
			switch( xMessage.xMessageID )
 8003232:	9b03      	ldr	r3, [sp, #12]
			xTimeNow = prvSampleTimeNow( &xTimerListsWereSwitched );
 8003234:	4602      	mov	r2, r0
			switch( xMessage.xMessageID )
 8003236:	2b09      	cmp	r3, #9
 8003238:	d8e8      	bhi.n	800320c <prvTimerTask+0x84>
 800323a:	a101      	add	r1, pc, #4	@ (adr r1, 8003240 <prvTimerTask+0xb8>)
 800323c:	f851 f023 	ldr.w	pc, [r1, r3, lsl #2]
 8003240:	080032a5 	.word	0x080032a5
 8003244:	080032a5 	.word	0x080032a5
 8003248:	080032a5 	.word	0x080032a5
 800324c:	0800320d 	.word	0x0800320d
 8003250:	080032e9 	.word	0x080032e9
 8003254:	0800330d 	.word	0x0800330d
 8003258:	080032a5 	.word	0x080032a5
 800325c:	080032a5 	.word	0x080032a5
 8003260:	0800320d 	.word	0x0800320d
 8003264:	080032e9 	.word	0x080032e9
					xListWasEmpty = listLIST_IS_EMPTY( pxOverflowTimerList );
 8003268:	4b2f      	ldr	r3, [pc, #188]	@ (8003328 <prvTimerTask+0x1a0>)
 800326a:	681b      	ldr	r3, [r3, #0]
 800326c:	681c      	ldr	r4, [r3, #0]
 800326e:	fab4 f484 	clz	r4, r4
 8003272:	0964      	lsrs	r4, r4, #5
				vQueueWaitForMessageRestricted( xTimerQueue, ( xNextExpireTime - xTimeNow ), xListWasEmpty );
 8003274:	4622      	mov	r2, r4
 8003276:	6838      	ldr	r0, [r7, #0]
 8003278:	eba8 0109 	sub.w	r1, r8, r9
 800327c:	f7ff f94c 	bl	8002518 <vQueueWaitForMessageRestricted>
				if( xTaskResumeAll() == pdFALSE )
 8003280:	f7ff fc22 	bl	8002ac8 <xTaskResumeAll>
 8003284:	2800      	cmp	r0, #0
 8003286:	d1c1      	bne.n	800320c <prvTimerTask+0x84>
					portYIELD_WITHIN_API();
 8003288:	f04f 23e0 	mov.w	r3, #3758153728	@ 0xe000e000
 800328c:	f04f 5280 	mov.w	r2, #268435456	@ 0x10000000
 8003290:	f8c3 2d04 	str.w	r2, [r3, #3332]	@ 0xd04
 8003294:	f3bf 8f4f 	dsb	sy
 8003298:	f3bf 8f6f 	isb	sy
 800329c:	e7b6      	b.n	800320c <prvTimerTask+0x84>
			( void ) xTaskResumeAll();
 800329e:	f7ff fc13 	bl	8002ac8 <xTaskResumeAll>
}
 80032a2:	e7b3      	b.n	800320c <prvTimerTask+0x84>
					if( prvInsertTimerInActiveList( pxTimer,  xMessage.u.xTimerParameters.xMessageValue + pxTimer->xTimerPeriodInTicks, xTimeNow, xMessage.u.xTimerParameters.xMessageValue ) != pdFALSE )
 80032a4:	69a1      	ldr	r1, [r4, #24]
 80032a6:	9b04      	ldr	r3, [sp, #16]
 80032a8:	4620      	mov	r0, r4
 80032aa:	4419      	add	r1, r3
 80032ac:	f7ff fe0a 	bl	8002ec4 <prvInsertTimerInActiveList>
 80032b0:	2800      	cmp	r0, #0
 80032b2:	d0ab      	beq.n	800320c <prvTimerTask+0x84>
						pxTimer->pxCallbackFunction( ( TimerHandle_t ) pxTimer );
 80032b4:	6a63      	ldr	r3, [r4, #36]	@ 0x24
 80032b6:	4620      	mov	r0, r4
 80032b8:	4798      	blx	r3
						if( pxTimer->uxAutoReload == ( UBaseType_t ) pdTRUE )
 80032ba:	69e3      	ldr	r3, [r4, #28]
 80032bc:	2b01      	cmp	r3, #1
 80032be:	d1a5      	bne.n	800320c <prvTimerTask+0x84>
							xResult = xTimerGenericCommand( pxTimer, tmrCOMMAND_START_DONT_TRACE, xMessage.u.xTimerParameters.xMessageValue + pxTimer->xTimerPeriodInTicks, NULL, tmrNO_DELAY );
 80032c0:	2300      	movs	r3, #0
 80032c2:	69a2      	ldr	r2, [r4, #24]
 80032c4:	9904      	ldr	r1, [sp, #16]
 80032c6:	4620      	mov	r0, r4
 80032c8:	440a      	add	r2, r1
 80032ca:	9300      	str	r3, [sp, #0]
 80032cc:	4619      	mov	r1, r3
 80032ce:	f7ff fee1 	bl	8003094 <xTimerGenericCommand>
							configASSERT( xResult );
 80032d2:	2800      	cmp	r0, #0
 80032d4:	d19a      	bne.n	800320c <prvTimerTask+0x84>
 80032d6:	f04f 0350 	mov.w	r3, #80	@ 0x50
 80032da:	f383 8811 	msr	BASEPRI, r3
 80032de:	f3bf 8f6f 	isb	sy
 80032e2:	f3bf 8f4f 	dsb	sy
 80032e6:	e7fe      	b.n	80032e6 <prvTimerTask+0x15e>
					pxTimer->xTimerPeriodInTicks = xMessage.u.xTimerParameters.xMessageValue;
 80032e8:	9904      	ldr	r1, [sp, #16]
 80032ea:	61a1      	str	r1, [r4, #24]
					configASSERT( ( pxTimer->xTimerPeriodInTicks > 0 ) );
 80032ec:	b941      	cbnz	r1, 8003300 <prvTimerTask+0x178>
 80032ee:	f04f 0350 	mov.w	r3, #80	@ 0x50
 80032f2:	f383 8811 	msr	BASEPRI, r3
 80032f6:	f3bf 8f6f 	isb	sy
 80032fa:	f3bf 8f4f 	dsb	sy
 80032fe:	e7fe      	b.n	80032fe <prvTimerTask+0x176>
					( void ) prvInsertTimerInActiveList( pxTimer, ( xTimeNow + pxTimer->xTimerPeriodInTicks ), xTimeNow, xTimeNow );
 8003300:	4603      	mov	r3, r0
 8003302:	4401      	add	r1, r0
 8003304:	4620      	mov	r0, r4
 8003306:	f7ff fddd 	bl	8002ec4 <prvInsertTimerInActiveList>
					break;
 800330a:	e77f      	b.n	800320c <prvTimerTask+0x84>
						if( pxTimer->ucStaticallyAllocated == ( uint8_t ) pdFALSE )
 800330c:	f894 3028 	ldrb.w	r3, [r4, #40]	@ 0x28
 8003310:	2b00      	cmp	r3, #0
 8003312:	f47f af7b 	bne.w	800320c <prvTimerTask+0x84>
							vPortFree( pxTimer );
 8003316:	4620      	mov	r0, r4
 8003318:	f000 fa32 	bl	8003780 <vPortFree>
 800331c:	e776      	b.n	800320c <prvTimerTask+0x84>
 800331e:	bf00      	nop
 8003320:	20000ddc 	.word	0x20000ddc
 8003324:	20000dd4 	.word	0x20000dd4
 8003328:	20000dd8 	.word	0x20000dd8

0800332c <xTimerIsTimerActive>:
/*-----------------------------------------------------------*/

BaseType_t xTimerIsTimerActive( TimerHandle_t xTimer )
{
 800332c:	b510      	push	{r4, lr}
BaseType_t xTimerIsInActiveList;
Timer_t *pxTimer = ( Timer_t * ) xTimer;

	configASSERT( xTimer );
 800332e:	4604      	mov	r4, r0
 8003330:	b940      	cbnz	r0, 8003344 <xTimerIsTimerActive+0x18>
 8003332:	f04f 0350 	mov.w	r3, #80	@ 0x50
 8003336:	f383 8811 	msr	BASEPRI, r3
 800333a:	f3bf 8f6f 	isb	sy
 800333e:	f3bf 8f4f 	dsb	sy
 8003342:	e7fe      	b.n	8003342 <xTimerIsTimerActive+0x16>

	/* Is the timer in the list of active timers? */
	taskENTER_CRITICAL();
 8003344:	f000 f85e 	bl	8003404 <vPortEnterCritical>
	{
		/* Checking to see if it is in the NULL list in effect checks to see if
		it is referenced from either the current or the overflow timer lists in
		one go, but the logic has to be reversed, hence the '!'. */
		xTimerIsInActiveList = ( BaseType_t ) !( listIS_CONTAINED_WITHIN( NULL, &( pxTimer->xTimerListItem ) ) ); /*lint !e961. Cast is only redundant when NULL is passed into the macro. */
 8003348:	6964      	ldr	r4, [r4, #20]
 800334a:	3c00      	subs	r4, #0
 800334c:	bf18      	it	ne
 800334e:	2401      	movne	r4, #1
	}
	taskEXIT_CRITICAL();
 8003350:	f000 f878 	bl	8003444 <vPortExitCritical>

	return xTimerIsInActiveList;
} /*lint !e818 Can't be pointer to const due to the typedef. */
 8003354:	4620      	mov	r0, r4
 8003356:	bd10      	pop	{r4, pc}

08003358 <prvPortStartFirstTask>:
}
/*-----------------------------------------------------------*/

static void prvPortStartFirstTask( void )
{
	__asm volatile(
 8003358:	4806      	ldr	r0, [pc, #24]	@ (8003374 <prvPortStartFirstTask+0x1c>)
 800335a:	6800      	ldr	r0, [r0, #0]
 800335c:	6800      	ldr	r0, [r0, #0]
 800335e:	f380 8808 	msr	MSP, r0
 8003362:	b662      	cpsie	i
 8003364:	b661      	cpsie	f
 8003366:	f3bf 8f4f 	dsb	sy
 800336a:	f3bf 8f6f 	isb	sy
 800336e:	df00      	svc	0
 8003370:	bf00      	nop
					" dsb					\n"
					" isb					\n"
					" svc 0					\n" /* System call to start first task. */
					" nop					\n"
				);
}
 8003372:	0000      	.short	0x0000
 8003374:	e000ed08 	.word	0xe000ed08

08003378 <prvTaskExitError>:
volatile uint32_t ulDummy = 0UL;
 8003378:	2300      	movs	r3, #0
{
 800337a:	b082      	sub	sp, #8
volatile uint32_t ulDummy = 0UL;
 800337c:	9301      	str	r3, [sp, #4]
	configASSERT( uxCriticalNesting == ~0UL );
 800337e:	4b0d      	ldr	r3, [pc, #52]	@ (80033b4 <prvTaskExitError+0x3c>)
 8003380:	681b      	ldr	r3, [r3, #0]
 8003382:	3301      	adds	r3, #1
 8003384:	d008      	beq.n	8003398 <prvTaskExitError+0x20>
 8003386:	f04f 0350 	mov.w	r3, #80	@ 0x50
 800338a:	f383 8811 	msr	BASEPRI, r3
 800338e:	f3bf 8f6f 	isb	sy
 8003392:	f3bf 8f4f 	dsb	sy
 8003396:	e7fe      	b.n	8003396 <prvTaskExitError+0x1e>
 8003398:	f04f 0350 	mov.w	r3, #80	@ 0x50
 800339c:	f383 8811 	msr	BASEPRI, r3
 80033a0:	f3bf 8f6f 	isb	sy
 80033a4:	f3bf 8f4f 	dsb	sy
	while( ulDummy == 0 )
 80033a8:	9b01      	ldr	r3, [sp, #4]
 80033aa:	2b00      	cmp	r3, #0
 80033ac:	d0fc      	beq.n	80033a8 <prvTaskExitError+0x30>
}
 80033ae:	b002      	add	sp, #8
 80033b0:	4770      	bx	lr
 80033b2:	bf00      	nop
 80033b4:	20000014 	.word	0x20000014

080033b8 <pxPortInitialiseStack>:
	*pxTopOfStack = portINITIAL_XPSR;	/* xPSR */
 80033b8:	f04f 7380 	mov.w	r3, #16777216	@ 0x1000000
 80033bc:	f840 3c04 	str.w	r3, [r0, #-4]
	*pxTopOfStack = ( StackType_t ) portTASK_RETURN_ADDRESS;	/* LR */
 80033c0:	4b05      	ldr	r3, [pc, #20]	@ (80033d8 <pxPortInitialiseStack+0x20>)
	*pxTopOfStack = ( ( StackType_t ) pxCode ) & portSTART_ADDRESS_MASK;	/* PC */
 80033c2:	f021 0101 	bic.w	r1, r1, #1
 80033c6:	f840 1c08 	str.w	r1, [r0, #-8]
	*pxTopOfStack = ( StackType_t ) portTASK_RETURN_ADDRESS;	/* LR */
 80033ca:	f840 3c0c 	str.w	r3, [r0, #-12]
	*pxTopOfStack = ( StackType_t ) pvParameters;	/* R0 */
 80033ce:	f840 2c20 	str.w	r2, [r0, #-32]
}
 80033d2:	3840      	subs	r0, #64	@ 0x40
 80033d4:	4770      	bx	lr
 80033d6:	bf00      	nop
 80033d8:	08003379 	.word	0x08003379
 80033dc:	00000000 	.word	0x00000000

080033e0 <SVC_Handler>:
	__asm volatile (
 80033e0:	4b07      	ldr	r3, [pc, #28]	@ (8003400 <pxCurrentTCBConst2>)
 80033e2:	6819      	ldr	r1, [r3, #0]
 80033e4:	6808      	ldr	r0, [r1, #0]
 80033e6:	e8b0 0ff0 	ldmia.w	r0!, {r4, r5, r6, r7, r8, r9, sl, fp}
 80033ea:	f380 8809 	msr	PSP, r0
 80033ee:	f3bf 8f6f 	isb	sy
 80033f2:	f04f 0000 	mov.w	r0, #0
 80033f6:	f380 8811 	msr	BASEPRI, r0
 80033fa:	f04e 0e0d 	orr.w	lr, lr, #13
 80033fe:	4770      	bx	lr

08003400 <pxCurrentTCBConst2>:
 8003400:	20000d08 	.word	0x20000d08

08003404 <vPortEnterCritical>:
 8003404:	f04f 0350 	mov.w	r3, #80	@ 0x50
 8003408:	f383 8811 	msr	BASEPRI, r3
 800340c:	f3bf 8f6f 	isb	sy
 8003410:	f3bf 8f4f 	dsb	sy
/*-----------------------------------------------------------*/

void vPortEnterCritical( void )
{
	portDISABLE_INTERRUPTS();
	uxCriticalNesting++;
 8003414:	4a0a      	ldr	r2, [pc, #40]	@ (8003440 <vPortEnterCritical+0x3c>)
 8003416:	6813      	ldr	r3, [r2, #0]
 8003418:	3301      	adds	r3, #1
	/* This is not the interrupt safe version of the enter critical function so
	assert() if it is being called from an interrupt context.  Only API
	functions that end in "FromISR" can be used in an interrupt.  Only assert if
	the critical nesting count is 1 to protect against recursive calls if the
	assert function also uses a critical section. */
	if( uxCriticalNesting == 1 )
 800341a:	2b01      	cmp	r3, #1
	uxCriticalNesting++;
 800341c:	6013      	str	r3, [r2, #0]
	if( uxCriticalNesting == 1 )
 800341e:	d10e      	bne.n	800343e <vPortEnterCritical+0x3a>
	{
		configASSERT( ( portNVIC_INT_CTRL_REG & portVECTACTIVE_MASK ) == 0 );
 8003420:	f04f 23e0 	mov.w	r3, #3758153728	@ 0xe000e000
 8003424:	f8d3 3d04 	ldr.w	r3, [r3, #3332]	@ 0xd04
 8003428:	b2db      	uxtb	r3, r3
 800342a:	b143      	cbz	r3, 800343e <vPortEnterCritical+0x3a>
 800342c:	f04f 0350 	mov.w	r3, #80	@ 0x50
 8003430:	f383 8811 	msr	BASEPRI, r3
 8003434:	f3bf 8f6f 	isb	sy
 8003438:	f3bf 8f4f 	dsb	sy
 800343c:	e7fe      	b.n	800343c <vPortEnterCritical+0x38>
	}
}
 800343e:	4770      	bx	lr
 8003440:	20000014 	.word	0x20000014

08003444 <vPortExitCritical>:
/*-----------------------------------------------------------*/

void vPortExitCritical( void )
{
	configASSERT( uxCriticalNesting );
 8003444:	4a08      	ldr	r2, [pc, #32]	@ (8003468 <vPortExitCritical+0x24>)
 8003446:	6813      	ldr	r3, [r2, #0]
 8003448:	b943      	cbnz	r3, 800345c <vPortExitCritical+0x18>
 800344a:	f04f 0350 	mov.w	r3, #80	@ 0x50
 800344e:	f383 8811 	msr	BASEPRI, r3
 8003452:	f3bf 8f6f 	isb	sy
 8003456:	f3bf 8f4f 	dsb	sy
 800345a:	e7fe      	b.n	800345a <vPortExitCritical+0x16>
	uxCriticalNesting--;
 800345c:	3b01      	subs	r3, #1
 800345e:	6013      	str	r3, [r2, #0]
	if( uxCriticalNesting == 0 )
 8003460:	b90b      	cbnz	r3, 8003466 <vPortExitCritical+0x22>
	__asm volatile
 8003462:	f383 8811 	msr	BASEPRI, r3
	{
		portENABLE_INTERRUPTS();
	}
}
 8003466:	4770      	bx	lr
 8003468:	20000014 	.word	0x20000014
 800346c:	00000000 	.word	0x00000000

08003470 <PendSV_Handler>:

void xPortPendSVHandler( void )
{
	/* This is a naked function. */

	__asm volatile
 8003470:	f3ef 8009 	mrs	r0, PSP
 8003474:	f3bf 8f6f 	isb	sy
 8003478:	4b0d      	ldr	r3, [pc, #52]	@ (80034b0 <pxCurrentTCBConst>)
 800347a:	681a      	ldr	r2, [r3, #0]
 800347c:	e920 0ff0 	stmdb	r0!, {r4, r5, r6, r7, r8, r9, sl, fp}
 8003480:	6010      	str	r0, [r2, #0]
 8003482:	e92d 4008 	stmdb	sp!, {r3, lr}
 8003486:	f04f 0050 	mov.w	r0, #80	@ 0x50
 800348a:	f380 8811 	msr	BASEPRI, r0
 800348e:	f7ff fbb5 	bl	8002bfc <vTaskSwitchContext>
 8003492:	f04f 0000 	mov.w	r0, #0
 8003496:	f380 8811 	msr	BASEPRI, r0
 800349a:	e8bd 4008 	ldmia.w	sp!, {r3, lr}
 800349e:	6819      	ldr	r1, [r3, #0]
 80034a0:	6808      	ldr	r0, [r1, #0]
 80034a2:	e8b0 0ff0 	ldmia.w	r0!, {r4, r5, r6, r7, r8, r9, sl, fp}
 80034a6:	f380 8809 	msr	PSP, r0
 80034aa:	f3bf 8f6f 	isb	sy
 80034ae:	4770      	bx	lr

080034b0 <pxCurrentTCBConst>:
 80034b0:	20000d08 	.word	0x20000d08

080034b4 <xPortSysTickHandler>:
	);
}
/*-----------------------------------------------------------*/

void xPortSysTickHandler( void )
{
 80034b4:	b508      	push	{r3, lr}
	__asm volatile
 80034b6:	f04f 0350 	mov.w	r3, #80	@ 0x50
 80034ba:	f383 8811 	msr	BASEPRI, r3
 80034be:	f3bf 8f6f 	isb	sy
 80034c2:	f3bf 8f4f 	dsb	sy
	save and then restore the interrupt mask value as its value is already
	known. */
	portDISABLE_INTERRUPTS();
	{
		/* Increment the RTOS tick. */
		if( xTaskIncrementTick() != pdFALSE )
 80034c6:	f7ff fa65 	bl	8002994 <xTaskIncrementTick>
 80034ca:	b128      	cbz	r0, 80034d8 <xPortSysTickHandler+0x24>
		{
			/* A context switch is required.  Context switching is performed in
			the PendSV interrupt.  Pend the PendSV interrupt. */
			portNVIC_INT_CTRL_REG = portNVIC_PENDSVSET_BIT;
 80034cc:	f04f 23e0 	mov.w	r3, #3758153728	@ 0xe000e000
 80034d0:	f04f 5280 	mov.w	r2, #268435456	@ 0x10000000
 80034d4:	f8c3 2d04 	str.w	r2, [r3, #3332]	@ 0xd04
	__asm volatile
 80034d8:	2300      	movs	r3, #0
 80034da:	f383 8811 	msr	BASEPRI, r3
		}
	}
	portENABLE_INTERRUPTS();
}
 80034de:	bd08      	pop	{r3, pc}

080034e0 <vPortSetupTimerInterrupt>:
		ulStoppedTimerCompensation = portMISSED_COUNTS_FACTOR / ( configCPU_CLOCK_HZ / configSYSTICK_CLOCK_HZ );
	}
	#endif /* configUSE_TICKLESS_IDLE */

	/* Stop and clear the SysTick. */
	portNVIC_SYSTICK_CTRL_REG = 0UL;
 80034e0:	f04f 22e0 	mov.w	r2, #3758153728	@ 0xe000e000
 80034e4:	2300      	movs	r3, #0
	portNVIC_SYSTICK_CURRENT_VALUE_REG = 0UL;

	/* Configure SysTick to interrupt at the requested rate. */
	portNVIC_SYSTICK_LOAD_REG = ( configSYSTICK_CLOCK_HZ / configTICK_RATE_HZ ) - 1UL;
 80034e6:	f44f 717a 	mov.w	r1, #1000	@ 0x3e8
	portNVIC_SYSTICK_CTRL_REG = 0UL;
 80034ea:	6113      	str	r3, [r2, #16]
	portNVIC_SYSTICK_CURRENT_VALUE_REG = 0UL;
 80034ec:	6193      	str	r3, [r2, #24]
	portNVIC_SYSTICK_LOAD_REG = ( configSYSTICK_CLOCK_HZ / configTICK_RATE_HZ ) - 1UL;
 80034ee:	4b04      	ldr	r3, [pc, #16]	@ (8003500 <vPortSetupTimerInterrupt+0x20>)
 80034f0:	681b      	ldr	r3, [r3, #0]
 80034f2:	fbb3 f3f1 	udiv	r3, r3, r1
 80034f6:	3b01      	subs	r3, #1
 80034f8:	6153      	str	r3, [r2, #20]
	portNVIC_SYSTICK_CTRL_REG = ( portNVIC_SYSTICK_CLK_BIT | portNVIC_SYSTICK_INT_BIT | portNVIC_SYSTICK_ENABLE_BIT );
 80034fa:	2307      	movs	r3, #7
 80034fc:	6113      	str	r3, [r2, #16]
}
 80034fe:	4770      	bx	lr
 8003500:	20000008 	.word	0x20000008

08003504 <xPortStartScheduler>:
{
 8003504:	b513      	push	{r0, r1, r4, lr}
		ulOriginalPriority = *pucFirstUserPriorityRegister;
 8003506:	4b27      	ldr	r3, [pc, #156]	@ (80035a4 <xPortStartScheduler+0xa0>)
 8003508:	781a      	ldrb	r2, [r3, #0]
 800350a:	b2d2      	uxtb	r2, r2
 800350c:	9201      	str	r2, [sp, #4]
		*pucFirstUserPriorityRegister = portMAX_8_BIT_VALUE;
 800350e:	22ff      	movs	r2, #255	@ 0xff
 8003510:	701a      	strb	r2, [r3, #0]
		ucMaxPriorityValue = *pucFirstUserPriorityRegister;
 8003512:	781b      	ldrb	r3, [r3, #0]
		ucMaxSysCallPriority = configMAX_SYSCALL_INTERRUPT_PRIORITY & ucMaxPriorityValue;
 8003514:	4a24      	ldr	r2, [pc, #144]	@ (80035a8 <xPortStartScheduler+0xa4>)
		ucMaxPriorityValue = *pucFirstUserPriorityRegister;
 8003516:	b2db      	uxtb	r3, r3
 8003518:	f88d 3003 	strb.w	r3, [sp, #3]
		ucMaxSysCallPriority = configMAX_SYSCALL_INTERRUPT_PRIORITY & ucMaxPriorityValue;
 800351c:	f89d 3003 	ldrb.w	r3, [sp, #3]
 8003520:	f003 0350 	and.w	r3, r3, #80	@ 0x50
 8003524:	7013      	strb	r3, [r2, #0]
		ulMaxPRIGROUPValue = portMAX_PRIGROUP_BITS;
 8003526:	2307      	movs	r3, #7
 8003528:	4a20      	ldr	r2, [pc, #128]	@ (80035ac <xPortStartScheduler+0xa8>)
 800352a:	6013      	str	r3, [r2, #0]
		while( ( ucMaxPriorityValue & portTOP_BIT_OF_BYTE ) == portTOP_BIT_OF_BYTE )
 800352c:	f89d 1003 	ldrb.w	r1, [sp, #3]
			ulMaxPRIGROUPValue--;
 8003530:	6813      	ldr	r3, [r2, #0]
		while( ( ucMaxPriorityValue & portTOP_BIT_OF_BYTE ) == portTOP_BIT_OF_BYTE )
 8003532:	0609      	lsls	r1, r1, #24
 8003534:	d40a      	bmi.n	800354c <xPortStartScheduler+0x48>
			configASSERT( ( portMAX_PRIGROUP_BITS - ulMaxPRIGROUPValue ) == configPRIO_BITS );
 8003536:	2b03      	cmp	r3, #3
 8003538:	d011      	beq.n	800355e <xPortStartScheduler+0x5a>
	__asm volatile
 800353a:	f04f 0350 	mov.w	r3, #80	@ 0x50
 800353e:	f383 8811 	msr	BASEPRI, r3
 8003542:	f3bf 8f6f 	isb	sy
 8003546:	f3bf 8f4f 	dsb	sy
 800354a:	e7fe      	b.n	800354a <xPortStartScheduler+0x46>
			ulMaxPRIGROUPValue--;
 800354c:	3b01      	subs	r3, #1
 800354e:	6013      	str	r3, [r2, #0]
			ucMaxPriorityValue <<= ( uint8_t ) 0x01;
 8003550:	f89d 3003 	ldrb.w	r3, [sp, #3]
 8003554:	005b      	lsls	r3, r3, #1
 8003556:	b2db      	uxtb	r3, r3
 8003558:	f88d 3003 	strb.w	r3, [sp, #3]
 800355c:	e7e6      	b.n	800352c <xPortStartScheduler+0x28>
		ulMaxPRIGROUPValue &= portPRIORITY_GROUP_MASK;
 800355e:	f44f 7340 	mov.w	r3, #768	@ 0x300
 8003562:	6013      	str	r3, [r2, #0]
		*pucFirstUserPriorityRegister = ulOriginalPriority;
 8003564:	9b01      	ldr	r3, [sp, #4]
 8003566:	4a0f      	ldr	r2, [pc, #60]	@ (80035a4 <xPortStartScheduler+0xa0>)
 8003568:	b2db      	uxtb	r3, r3
 800356a:	7013      	strb	r3, [r2, #0]
	portNVIC_SYSPRI2_REG |= portNVIC_PENDSV_PRI;
 800356c:	f04f 23e0 	mov.w	r3, #3758153728	@ 0xe000e000
	uxCriticalNesting = 0;
 8003570:	2400      	movs	r4, #0
	portNVIC_SYSPRI2_REG |= portNVIC_PENDSV_PRI;
 8003572:	f8d3 2d20 	ldr.w	r2, [r3, #3360]	@ 0xd20
 8003576:	f442 0270 	orr.w	r2, r2, #15728640	@ 0xf00000
 800357a:	f8c3 2d20 	str.w	r2, [r3, #3360]	@ 0xd20
	portNVIC_SYSPRI2_REG |= portNVIC_SYSTICK_PRI;
 800357e:	f8d3 2d20 	ldr.w	r2, [r3, #3360]	@ 0xd20
 8003582:	f042 4270 	orr.w	r2, r2, #4026531840	@ 0xf0000000
 8003586:	f8c3 2d20 	str.w	r2, [r3, #3360]	@ 0xd20
	vPortSetupTimerInterrupt();
 800358a:	f7ff ffa9 	bl	80034e0 <vPortSetupTimerInterrupt>
	uxCriticalNesting = 0;
 800358e:	4b08      	ldr	r3, [pc, #32]	@ (80035b0 <xPortStartScheduler+0xac>)
 8003590:	601c      	str	r4, [r3, #0]
	prvPortStartFirstTask();
 8003592:	f7ff fee1 	bl	8003358 <prvPortStartFirstTask>
	vTaskSwitchContext();
 8003596:	f7ff fb31 	bl	8002bfc <vTaskSwitchContext>
}
 800359a:	4620      	mov	r0, r4
	prvTaskExitError();
 800359c:	f7ff feec 	bl	8003378 <prvTaskExitError>
}
 80035a0:	b002      	add	sp, #8
 80035a2:	bd10      	pop	{r4, pc}
 80035a4:	e000e400 	.word	0xe000e400
 80035a8:	20000e0c 	.word	0x20000e0c
 80035ac:	20000e08 	.word	0x20000e08
 80035b0:	20000014 	.word	0x20000014

080035b4 <vPortValidateInterruptPriority>:
	{
	uint32_t ulCurrentInterrupt;
	uint8_t ucCurrentPriority;

		/* Obtain the number of the currently executing interrupt. */
		__asm volatile( "mrs %0, ipsr" : "=r"( ulCurrentInterrupt ) :: "memory" );
 80035b4:	f3ef 8305 	mrs	r3, IPSR

		/* Is the interrupt number a user defined interrupt? */
		if( ulCurrentInterrupt >= portFIRST_USER_INTERRUPT_NUMBER )
 80035b8:	2b0f      	cmp	r3, #15
 80035ba:	d90e      	bls.n	80035da <vPortValidateInterruptPriority+0x26>
		{
			/* Look up the interrupt's priority. */
			ucCurrentPriority = pcInterruptPriorityRegisters[ ulCurrentInterrupt ];
 80035bc:	4a11      	ldr	r2, [pc, #68]	@ (8003604 <vPortValidateInterruptPriority+0x50>)
 80035be:	5c9b      	ldrb	r3, [r3, r2]
			interrupt entry is as fast and simple as possible.

			The following links provide detailed information:
			http://www.freertos.org/RTOS-Cortex-M3-M4.html
			http://www.freertos.org/FAQHelp.html */
			configASSERT( ucCurrentPriority >= ucMaxSysCallPriority );
 80035c0:	4a11      	ldr	r2, [pc, #68]	@ (8003608 <vPortValidateInterruptPriority+0x54>)
 80035c2:	7812      	ldrb	r2, [r2, #0]
 80035c4:	429a      	cmp	r2, r3
 80035c6:	d908      	bls.n	80035da <vPortValidateInterruptPriority+0x26>
 80035c8:	f04f 0350 	mov.w	r3, #80	@ 0x50
 80035cc:	f383 8811 	msr	BASEPRI, r3
 80035d0:	f3bf 8f6f 	isb	sy
 80035d4:	f3bf 8f4f 	dsb	sy
 80035d8:	e7fe      	b.n	80035d8 <vPortValidateInterruptPriority+0x24>
		configuration then the correct setting can be achieved on all Cortex-M
		devices by calling NVIC_SetPriorityGrouping( 0 ); before starting the
		scheduler.  Note however that some vendor specific peripheral libraries
		assume a non-zero priority group setting, in which cases using a value
		of zero will result in unpredictable behaviour. */
		configASSERT( ( portAIRCR_REG & portPRIORITY_GROUP_MASK ) <= ulMaxPRIGROUPValue );
 80035da:	f04f 23e0 	mov.w	r3, #3758153728	@ 0xe000e000
 80035de:	4a0b      	ldr	r2, [pc, #44]	@ (800360c <vPortValidateInterruptPriority+0x58>)
 80035e0:	f8d3 3d0c 	ldr.w	r3, [r3, #3340]	@ 0xd0c
 80035e4:	6812      	ldr	r2, [r2, #0]
 80035e6:	f403 63e0 	and.w	r3, r3, #1792	@ 0x700
 80035ea:	4293      	cmp	r3, r2
 80035ec:	d908      	bls.n	8003600 <vPortValidateInterruptPriority+0x4c>
 80035ee:	f04f 0350 	mov.w	r3, #80	@ 0x50
 80035f2:	f383 8811 	msr	BASEPRI, r3
 80035f6:	f3bf 8f6f 	isb	sy
 80035fa:	f3bf 8f4f 	dsb	sy
 80035fe:	e7fe      	b.n	80035fe <vPortValidateInterruptPriority+0x4a>
	}
 8003600:	4770      	bx	lr
 8003602:	bf00      	nop
 8003604:	e000e3f0 	.word	0xe000e3f0
 8003608:	20000e0c 	.word	0x20000e0c
 800360c:	20000e08 	.word	0x20000e08

08003610 <prvInsertBlockIntoFreeList>:
	xBlockAllocatedBit = ( ( size_t ) 1 ) << ( ( sizeof( size_t ) * heapBITS_PER_BYTE ) - 1 );
}
/*-----------------------------------------------------------*/

static void prvInsertBlockIntoFreeList( BlockLink_t *pxBlockToInsert )
{
 8003610:	b510      	push	{r4, lr}
BlockLink_t *pxIterator;
uint8_t *puc;

	/* Iterate through the list until a block is found that has a higher address
	than the block being inserted. */
	for( pxIterator = &xStart; pxIterator->pxNextFreeBlock < pxBlockToInsert; pxIterator = pxIterator->pxNextFreeBlock )
 8003612:	4b10      	ldr	r3, [pc, #64]	@ (8003654 <prvInsertBlockIntoFreeList+0x44>)
 8003614:	461a      	mov	r2, r3
 8003616:	681b      	ldr	r3, [r3, #0]
 8003618:	4283      	cmp	r3, r0
 800361a:	d3fb      	bcc.n	8003614 <prvInsertBlockIntoFreeList+0x4>
	}

	/* Do the block being inserted, and the block it is being inserted after
	make a contiguous block of memory? */
	puc = ( uint8_t * ) pxIterator;
	if( ( puc + pxIterator->xBlockSize ) == ( uint8_t * ) pxBlockToInsert )
 800361c:	6854      	ldr	r4, [r2, #4]
 800361e:	1911      	adds	r1, r2, r4
 8003620:	4288      	cmp	r0, r1
	{
		pxIterator->xBlockSize += pxBlockToInsert->xBlockSize;
 8003622:	bf01      	itttt	eq
 8003624:	6841      	ldreq	r1, [r0, #4]
 8003626:	4610      	moveq	r0, r2
 8003628:	1909      	addeq	r1, r1, r4
 800362a:	6051      	streq	r1, [r2, #4]
	}

	/* Do the block being inserted, and the block it is being inserted before
	make a contiguous block of memory? */
	puc = ( uint8_t * ) pxBlockToInsert;
	if( ( puc + pxBlockToInsert->xBlockSize ) == ( uint8_t * ) pxIterator->pxNextFreeBlock )
 800362c:	6844      	ldr	r4, [r0, #4]
 800362e:	1901      	adds	r1, r0, r4
 8003630:	428b      	cmp	r3, r1
 8003632:	d10c      	bne.n	800364e <prvInsertBlockIntoFreeList+0x3e>
	{
		if( pxIterator->pxNextFreeBlock != pxEnd )
 8003634:	4908      	ldr	r1, [pc, #32]	@ (8003658 <prvInsertBlockIntoFreeList+0x48>)
 8003636:	6809      	ldr	r1, [r1, #0]
 8003638:	428b      	cmp	r3, r1
 800363a:	d003      	beq.n	8003644 <prvInsertBlockIntoFreeList+0x34>
		{
			/* Form one big block from the two blocks. */
			pxBlockToInsert->xBlockSize += pxIterator->pxNextFreeBlock->xBlockSize;
 800363c:	6859      	ldr	r1, [r3, #4]
 800363e:	4421      	add	r1, r4
 8003640:	6041      	str	r1, [r0, #4]
			pxBlockToInsert->pxNextFreeBlock = pxIterator->pxNextFreeBlock->pxNextFreeBlock;
 8003642:	6819      	ldr	r1, [r3, #0]

	/* If the block being inserted plugged a gab, so was merged with the block
	before and the block after, then it's pxNextFreeBlock pointer will have
	already been set, and should not be set here as that would make it point
	to itself. */
	if( pxIterator != pxBlockToInsert )
 8003644:	4290      	cmp	r0, r2
			pxBlockToInsert->pxNextFreeBlock = pxEnd;
 8003646:	6001      	str	r1, [r0, #0]
	{
		pxIterator->pxNextFreeBlock = pxBlockToInsert;
 8003648:	bf18      	it	ne
 800364a:	6010      	strne	r0, [r2, #0]
	}
	else
	{
		mtCOVERAGE_TEST_MARKER();
	}
}
 800364c:	bd10      	pop	{r4, pc}
	for( pxIterator = &xStart; pxIterator->pxNextFreeBlock < pxBlockToInsert; pxIterator = pxIterator->pxNextFreeBlock )
 800364e:	4619      	mov	r1, r3
 8003650:	e7f8      	b.n	8003644 <prvInsertBlockIntoFreeList+0x34>
 8003652:	bf00      	nop
 8003654:	20000e20 	.word	0x20000e20
 8003658:	20000e1c 	.word	0x20000e1c

0800365c <pvPortMalloc>:
{
 800365c:	e92d 41f0 	stmdb	sp!, {r4, r5, r6, r7, r8, lr}
 8003660:	4604      	mov	r4, r0
	vTaskSuspendAll();
 8003662:	f7ff f989 	bl	8002978 <vTaskSuspendAll>
		if( pxEnd == NULL )
 8003666:	4940      	ldr	r1, [pc, #256]	@ (8003768 <pvPortMalloc+0x10c>)
 8003668:	4d40      	ldr	r5, [pc, #256]	@ (800376c <pvPortMalloc+0x110>)
 800366a:	680b      	ldr	r3, [r1, #0]
 800366c:	bb0b      	cbnz	r3, 80036b2 <pvPortMalloc+0x56>
	uxAddress = ( size_t ) ucHeap;
 800366e:	4a40      	ldr	r2, [pc, #256]	@ (8003770 <pvPortMalloc+0x114>)
	if( ( uxAddress & portBYTE_ALIGNMENT_MASK ) != 0 )
 8003670:	0756      	lsls	r6, r2, #29
		uxAddress += ( portBYTE_ALIGNMENT - 1 );
 8003672:	bf1f      	itttt	ne
 8003674:	1dd0      	addne	r0, r2, #7
		uxAddress &= ~( ( size_t ) portBYTE_ALIGNMENT_MASK );
 8003676:	f020 0007 	bicne.w	r0, r0, #7
		xTotalHeapSize -= uxAddress - ( size_t ) ucHeap;
 800367a:	f502 6240 	addne.w	r2, r2, #3072	@ 0xc00
 800367e:	1a13      	subne	r3, r2, r0
size_t xTotalHeapSize = configTOTAL_HEAP_SIZE;
 8003680:	bf0c      	ite	eq
 8003682:	f44f 6340 	moveq.w	r3, #3072	@ 0xc00
		uxAddress &= ~( ( size_t ) portBYTE_ALIGNMENT_MASK );
 8003686:	4602      	movne	r2, r0
	xStart.xBlockSize = ( size_t ) 0;
 8003688:	2000      	movs	r0, #0
	uxAddress = ( ( size_t ) pucAlignedHeap ) + xTotalHeapSize;
 800368a:	4413      	add	r3, r2
	xStart.pxNextFreeBlock = ( void * ) pucAlignedHeap;
 800368c:	4e39      	ldr	r6, [pc, #228]	@ (8003774 <pvPortMalloc+0x118>)
	uxAddress -= xHeapStructSize;
 800368e:	3b08      	subs	r3, #8
	uxAddress &= ~( ( size_t ) portBYTE_ALIGNMENT_MASK );
 8003690:	f023 0307 	bic.w	r3, r3, #7
	xStart.xBlockSize = ( size_t ) 0;
 8003694:	6070      	str	r0, [r6, #4]
	xStart.pxNextFreeBlock = ( void * ) pucAlignedHeap;
 8003696:	6032      	str	r2, [r6, #0]
	pxEnd->pxNextFreeBlock = NULL;
 8003698:	e9c3 0000 	strd	r0, r0, [r3]
	pxFirstFreeBlock->xBlockSize = uxAddress - ( size_t ) pxFirstFreeBlock;
 800369c:	1a98      	subs	r0, r3, r2
	pxFirstFreeBlock->pxNextFreeBlock = pxEnd;
 800369e:	e9c2 3000 	strd	r3, r0, [r2]
	pxEnd = ( void * ) uxAddress;
 80036a2:	600b      	str	r3, [r1, #0]
	xMinimumEverFreeBytesRemaining = pxFirstFreeBlock->xBlockSize;
 80036a4:	4b34      	ldr	r3, [pc, #208]	@ (8003778 <pvPortMalloc+0x11c>)
 80036a6:	6018      	str	r0, [r3, #0]
	xFreeBytesRemaining = pxFirstFreeBlock->xBlockSize;
 80036a8:	4b34      	ldr	r3, [pc, #208]	@ (800377c <pvPortMalloc+0x120>)
 80036aa:	6018      	str	r0, [r3, #0]
	xBlockAllocatedBit = ( ( size_t ) 1 ) << ( ( sizeof( size_t ) * heapBITS_PER_BYTE ) - 1 );
 80036ac:	f04f 4300 	mov.w	r3, #2147483648	@ 0x80000000
 80036b0:	602b      	str	r3, [r5, #0]
		if( ( xWantedSize & xBlockAllocatedBit ) == 0 )
 80036b2:	682e      	ldr	r6, [r5, #0]
 80036b4:	4226      	tst	r6, r4
 80036b6:	d151      	bne.n	800375c <pvPortMalloc+0x100>
			if( xWantedSize > 0 )
 80036b8:	2c00      	cmp	r4, #0
 80036ba:	d042      	beq.n	8003742 <pvPortMalloc+0xe6>
				xWantedSize += xHeapStructSize;
 80036bc:	f104 0308 	add.w	r3, r4, #8
				if( ( xWantedSize & portBYTE_ALIGNMENT_MASK ) != 0x00 )
 80036c0:	0760      	lsls	r0, r4, #29
					xWantedSize += ( portBYTE_ALIGNMENT - ( xWantedSize & portBYTE_ALIGNMENT_MASK ) );
 80036c2:	bf1c      	itt	ne
 80036c4:	f023 0307 	bicne.w	r3, r3, #7
 80036c8:	3308      	addne	r3, #8
			if( ( xWantedSize > 0 ) && ( xWantedSize <= xFreeBytesRemaining ) )
 80036ca:	2b00      	cmp	r3, #0
 80036cc:	d046      	beq.n	800375c <pvPortMalloc+0x100>
 80036ce:	4f2b      	ldr	r7, [pc, #172]	@ (800377c <pvPortMalloc+0x120>)
 80036d0:	683c      	ldr	r4, [r7, #0]
 80036d2:	429c      	cmp	r4, r3
 80036d4:	d342      	bcc.n	800375c <pvPortMalloc+0x100>
				pxBlock = xStart.pxNextFreeBlock;
 80036d6:	4a27      	ldr	r2, [pc, #156]	@ (8003774 <pvPortMalloc+0x118>)
 80036d8:	6815      	ldr	r5, [r2, #0]
				while( ( pxBlock->xBlockSize < xWantedSize ) && ( pxBlock->pxNextFreeBlock != NULL ) )
 80036da:	6868      	ldr	r0, [r5, #4]
 80036dc:	4298      	cmp	r0, r3
 80036de:	d204      	bcs.n	80036ea <pvPortMalloc+0x8e>
 80036e0:	f8d5 c000 	ldr.w	ip, [r5]
 80036e4:	f1bc 0f00 	cmp.w	ip, #0
 80036e8:	d115      	bne.n	8003716 <pvPortMalloc+0xba>
				if( pxBlock != pxEnd )
 80036ea:	6809      	ldr	r1, [r1, #0]
 80036ec:	42a9      	cmp	r1, r5
 80036ee:	d035      	beq.n	800375c <pvPortMalloc+0x100>
					pxPreviousBlock->pxNextFreeBlock = pxBlock->pxNextFreeBlock;
 80036f0:	6829      	ldr	r1, [r5, #0]
					pvReturn = ( void * ) ( ( ( uint8_t * ) pxPreviousBlock->pxNextFreeBlock ) + xHeapStructSize );
 80036f2:	f8d2 8000 	ldr.w	r8, [r2]
					pxPreviousBlock->pxNextFreeBlock = pxBlock->pxNextFreeBlock;
 80036f6:	6011      	str	r1, [r2, #0]
					if( ( pxBlock->xBlockSize - xWantedSize ) > heapMINIMUM_BLOCK_SIZE )
 80036f8:	1ac2      	subs	r2, r0, r3
 80036fa:	2a10      	cmp	r2, #16
 80036fc:	d912      	bls.n	8003724 <pvPortMalloc+0xc8>
						pxNewBlockLink = ( void * ) ( ( ( uint8_t * ) pxBlock ) + xWantedSize );
 80036fe:	18e8      	adds	r0, r5, r3
						configASSERT( ( ( ( size_t ) pxNewBlockLink ) & portBYTE_ALIGNMENT_MASK ) == 0 );
 8003700:	0741      	lsls	r1, r0, #29
 8003702:	d00b      	beq.n	800371c <pvPortMalloc+0xc0>
 8003704:	f04f 0350 	mov.w	r3, #80	@ 0x50
 8003708:	f383 8811 	msr	BASEPRI, r3
 800370c:	f3bf 8f6f 	isb	sy
 8003710:	f3bf 8f4f 	dsb	sy
 8003714:	e7fe      	b.n	8003714 <pvPortMalloc+0xb8>
 8003716:	462a      	mov	r2, r5
 8003718:	4665      	mov	r5, ip
 800371a:	e7de      	b.n	80036da <pvPortMalloc+0x7e>
						pxNewBlockLink->xBlockSize = pxBlock->xBlockSize - xWantedSize;
 800371c:	6042      	str	r2, [r0, #4]
						pxBlock->xBlockSize = xWantedSize;
 800371e:	606b      	str	r3, [r5, #4]
						prvInsertBlockIntoFreeList( pxNewBlockLink );
 8003720:	f7ff ff76 	bl	8003610 <prvInsertBlockIntoFreeList>
					pxBlock->pxNextFreeBlock = NULL;
 8003724:	2300      	movs	r3, #0
					if( xFreeBytesRemaining < xMinimumEverFreeBytesRemaining )
 8003726:	4914      	ldr	r1, [pc, #80]	@ (8003778 <pvPortMalloc+0x11c>)
					xFreeBytesRemaining -= pxBlock->xBlockSize;
 8003728:	686a      	ldr	r2, [r5, #4]
					if( xFreeBytesRemaining < xMinimumEverFreeBytesRemaining )
 800372a:	6808      	ldr	r0, [r1, #0]
					xFreeBytesRemaining -= pxBlock->xBlockSize;
 800372c:	1aa4      	subs	r4, r4, r2
					if( xFreeBytesRemaining < xMinimumEverFreeBytesRemaining )
 800372e:	4284      	cmp	r4, r0
					pxBlock->xBlockSize |= xBlockAllocatedBit;
 8003730:	ea46 0602 	orr.w	r6, r6, r2
					xFreeBytesRemaining -= pxBlock->xBlockSize;
 8003734:	603c      	str	r4, [r7, #0]
						xMinimumEverFreeBytesRemaining = xFreeBytesRemaining;
 8003736:	bf38      	it	cc
 8003738:	600c      	strcc	r4, [r1, #0]
					pxBlock->xBlockSize |= xBlockAllocatedBit;
 800373a:	606e      	str	r6, [r5, #4]
					pvReturn = ( void * ) ( ( ( uint8_t * ) pxPreviousBlock->pxNextFreeBlock ) + xHeapStructSize );
 800373c:	f108 0408 	add.w	r4, r8, #8
					pxBlock->pxNextFreeBlock = NULL;
 8003740:	602b      	str	r3, [r5, #0]
	( void ) xTaskResumeAll();
 8003742:	f7ff f9c1 	bl	8002ac8 <xTaskResumeAll>
	configASSERT( ( ( ( size_t ) pvReturn ) & ( size_t ) portBYTE_ALIGNMENT_MASK ) == 0 );
 8003746:	0763      	lsls	r3, r4, #29
 8003748:	d00a      	beq.n	8003760 <pvPortMalloc+0x104>
 800374a:	f04f 0350 	mov.w	r3, #80	@ 0x50
 800374e:	f383 8811 	msr	BASEPRI, r3
 8003752:	f3bf 8f6f 	isb	sy
 8003756:	f3bf 8f4f 	dsb	sy
 800375a:	e7fe      	b.n	800375a <pvPortMalloc+0xfe>
void *pvReturn = NULL;
 800375c:	2400      	movs	r4, #0
 800375e:	e7f0      	b.n	8003742 <pvPortMalloc+0xe6>
}
 8003760:	4620      	mov	r0, r4
 8003762:	e8bd 81f0 	ldmia.w	sp!, {r4, r5, r6, r7, r8, pc}
 8003766:	bf00      	nop
 8003768:	20000e1c 	.word	0x20000e1c
 800376c:	20000e10 	.word	0x20000e10
 8003770:	20000e28 	.word	0x20000e28
 8003774:	20000e20 	.word	0x20000e20
 8003778:	20000e14 	.word	0x20000e14
 800377c:	20000e18 	.word	0x20000e18

08003780 <vPortFree>:
{
 8003780:	b510      	push	{r4, lr}
	if( pv != NULL )
 8003782:	4604      	mov	r4, r0
 8003784:	b370      	cbz	r0, 80037e4 <vPortFree+0x64>
		configASSERT( ( pxLink->xBlockSize & xBlockAllocatedBit ) != 0 );
 8003786:	4a18      	ldr	r2, [pc, #96]	@ (80037e8 <vPortFree+0x68>)
 8003788:	f850 3c04 	ldr.w	r3, [r0, #-4]
 800378c:	6812      	ldr	r2, [r2, #0]
 800378e:	4213      	tst	r3, r2
 8003790:	d108      	bne.n	80037a4 <vPortFree+0x24>
 8003792:	f04f 0350 	mov.w	r3, #80	@ 0x50
 8003796:	f383 8811 	msr	BASEPRI, r3
 800379a:	f3bf 8f6f 	isb	sy
 800379e:	f3bf 8f4f 	dsb	sy
 80037a2:	e7fe      	b.n	80037a2 <vPortFree+0x22>
		configASSERT( pxLink->pxNextFreeBlock == NULL );
 80037a4:	f850 1c08 	ldr.w	r1, [r0, #-8]
 80037a8:	b141      	cbz	r1, 80037bc <vPortFree+0x3c>
 80037aa:	f04f 0350 	mov.w	r3, #80	@ 0x50
 80037ae:	f383 8811 	msr	BASEPRI, r3
 80037b2:	f3bf 8f6f 	isb	sy
 80037b6:	f3bf 8f4f 	dsb	sy
 80037ba:	e7fe      	b.n	80037ba <vPortFree+0x3a>
				pxLink->xBlockSize &= ~xBlockAllocatedBit;
 80037bc:	ea23 0302 	bic.w	r3, r3, r2
 80037c0:	f840 3c04 	str.w	r3, [r0, #-4]
				vTaskSuspendAll();
 80037c4:	f7ff f8d8 	bl	8002978 <vTaskSuspendAll>
					xFreeBytesRemaining += pxLink->xBlockSize;
 80037c8:	4a08      	ldr	r2, [pc, #32]	@ (80037ec <vPortFree+0x6c>)
 80037ca:	f854 3c04 	ldr.w	r3, [r4, #-4]
 80037ce:	6811      	ldr	r1, [r2, #0]
					prvInsertBlockIntoFreeList( ( ( BlockLink_t * ) pxLink ) );
 80037d0:	f1a4 0008 	sub.w	r0, r4, #8
					xFreeBytesRemaining += pxLink->xBlockSize;
 80037d4:	440b      	add	r3, r1
 80037d6:	6013      	str	r3, [r2, #0]
					prvInsertBlockIntoFreeList( ( ( BlockLink_t * ) pxLink ) );
 80037d8:	f7ff ff1a 	bl	8003610 <prvInsertBlockIntoFreeList>
}
 80037dc:	e8bd 4010 	ldmia.w	sp!, {r4, lr}
				( void ) xTaskResumeAll();
 80037e0:	f7ff b972 	b.w	8002ac8 <xTaskResumeAll>
}
 80037e4:	bd10      	pop	{r4, pc}
 80037e6:	bf00      	nop
 80037e8:	20000e10 	.word	0x20000e10
 80037ec:	20000e18 	.word	0x20000e18

080037f0 <siprintf>:
 80037f0:	b40e      	push	{r1, r2, r3}
 80037f2:	f06f 4100 	mvn.w	r1, #2147483648	@ 0x80000000
 80037f6:	b500      	push	{lr}
 80037f8:	b09c      	sub	sp, #112	@ 0x70
 80037fa:	ab1d      	add	r3, sp, #116	@ 0x74
 80037fc:	9002      	str	r0, [sp, #8]
 80037fe:	9006      	str	r0, [sp, #24]
 8003800:	9107      	str	r1, [sp, #28]
 8003802:	9104      	str	r1, [sp, #16]
 8003804:	4808      	ldr	r0, [pc, #32]	@ (8003828 <siprintf+0x38>)
 8003806:	4909      	ldr	r1, [pc, #36]	@ (800382c <siprintf+0x3c>)
 8003808:	f853 2b04 	ldr.w	r2, [r3], #4
 800380c:	9105      	str	r1, [sp, #20]
 800380e:	6800      	ldr	r0, [r0, #0]
 8003810:	a902      	add	r1, sp, #8
 8003812:	9301      	str	r3, [sp, #4]
 8003814:	f000 f9a0 	bl	8003b58 <_svfiprintf_r>
 8003818:	2200      	movs	r2, #0
 800381a:	9b02      	ldr	r3, [sp, #8]
 800381c:	701a      	strb	r2, [r3, #0]
 800381e:	b01c      	add	sp, #112	@ 0x70
 8003820:	f85d eb04 	ldr.w	lr, [sp], #4
 8003824:	b003      	add	sp, #12
 8003826:	4770      	bx	lr
 8003828:	20000018 	.word	0x20000018
 800382c:	ffff0208 	.word	0xffff0208

08003830 <memset>:
 8003830:	4603      	mov	r3, r0
 8003832:	4402      	add	r2, r0
 8003834:	4293      	cmp	r3, r2
 8003836:	d100      	bne.n	800383a <memset+0xa>
 8003838:	4770      	bx	lr
 800383a:	f803 1b01 	strb.w	r1, [r3], #1
 800383e:	e7f9      	b.n	8003834 <memset+0x4>

08003840 <__errno>:
 8003840:	4b01      	ldr	r3, [pc, #4]	@ (8003848 <__errno+0x8>)
 8003842:	6818      	ldr	r0, [r3, #0]
 8003844:	4770      	bx	lr
 8003846:	bf00      	nop
 8003848:	20000018 	.word	0x20000018

0800384c <__libc_init_array>:
 800384c:	b570      	push	{r4, r5, r6, lr}
 800384e:	2600      	movs	r6, #0
 8003850:	4d0c      	ldr	r5, [pc, #48]	@ (8003884 <__libc_init_array+0x38>)
 8003852:	4c0d      	ldr	r4, [pc, #52]	@ (8003888 <__libc_init_array+0x3c>)
 8003854:	1b64      	subs	r4, r4, r5
 8003856:	10a4      	asrs	r4, r4, #2
 8003858:	42a6      	cmp	r6, r4
 800385a:	d109      	bne.n	8003870 <__libc_init_array+0x24>
 800385c:	f000 fc78 	bl	8004150 <_init>
 8003860:	2600      	movs	r6, #0
 8003862:	4d0a      	ldr	r5, [pc, #40]	@ (800388c <__libc_init_array+0x40>)
 8003864:	4c0a      	ldr	r4, [pc, #40]	@ (8003890 <__libc_init_array+0x44>)
 8003866:	1b64      	subs	r4, r4, r5
 8003868:	10a4      	asrs	r4, r4, #2
 800386a:	42a6      	cmp	r6, r4
 800386c:	d105      	bne.n	800387a <__libc_init_array+0x2e>
 800386e:	bd70      	pop	{r4, r5, r6, pc}
 8003870:	f855 3b04 	ldr.w	r3, [r5], #4
 8003874:	4798      	blx	r3
 8003876:	3601      	adds	r6, #1
 8003878:	e7ee      	b.n	8003858 <__libc_init_array+0xc>
 800387a:	f855 3b04 	ldr.w	r3, [r5], #4
 800387e:	4798      	blx	r3
 8003880:	3601      	adds	r6, #1
 8003882:	e7f2      	b.n	800386a <__libc_init_array+0x1e>
 8003884:	08005aa0 	.word	0x08005aa0
 8003888:	08005aa0 	.word	0x08005aa0
 800388c:	08005aa0 	.word	0x08005aa0
 8003890:	08005aa4 	.word	0x08005aa4

08003894 <__retarget_lock_acquire_recursive>:
 8003894:	4770      	bx	lr

08003896 <__retarget_lock_release_recursive>:
 8003896:	4770      	bx	lr

08003898 <memcpy>:
 8003898:	440a      	add	r2, r1
 800389a:	4291      	cmp	r1, r2
 800389c:	f100 33ff 	add.w	r3, r0, #4294967295
 80038a0:	d100      	bne.n	80038a4 <memcpy+0xc>
 80038a2:	4770      	bx	lr
 80038a4:	b510      	push	{r4, lr}
 80038a6:	f811 4b01 	ldrb.w	r4, [r1], #1
 80038aa:	4291      	cmp	r1, r2
 80038ac:	f803 4f01 	strb.w	r4, [r3, #1]!
 80038b0:	d1f9      	bne.n	80038a6 <memcpy+0xe>
 80038b2:	bd10      	pop	{r4, pc}

080038b4 <_free_r>:
 80038b4:	b538      	push	{r3, r4, r5, lr}
 80038b6:	4605      	mov	r5, r0
 80038b8:	2900      	cmp	r1, #0
 80038ba:	d040      	beq.n	800393e <_free_r+0x8a>
 80038bc:	f851 3c04 	ldr.w	r3, [r1, #-4]
 80038c0:	1f0c      	subs	r4, r1, #4
 80038c2:	2b00      	cmp	r3, #0
 80038c4:	bfb8      	it	lt
 80038c6:	18e4      	addlt	r4, r4, r3
 80038c8:	f000 f8de 	bl	8003a88 <__malloc_lock>
 80038cc:	4a1c      	ldr	r2, [pc, #112]	@ (8003940 <_free_r+0x8c>)
 80038ce:	6813      	ldr	r3, [r2, #0]
 80038d0:	b933      	cbnz	r3, 80038e0 <_free_r+0x2c>
 80038d2:	6063      	str	r3, [r4, #4]
 80038d4:	6014      	str	r4, [r2, #0]
 80038d6:	4628      	mov	r0, r5
 80038d8:	e8bd 4038 	ldmia.w	sp!, {r3, r4, r5, lr}
 80038dc:	f000 b8da 	b.w	8003a94 <__malloc_unlock>
 80038e0:	42a3      	cmp	r3, r4
 80038e2:	d908      	bls.n	80038f6 <_free_r+0x42>
 80038e4:	6820      	ldr	r0, [r4, #0]
 80038e6:	1821      	adds	r1, r4, r0
 80038e8:	428b      	cmp	r3, r1
 80038ea:	bf01      	itttt	eq
 80038ec:	6819      	ldreq	r1, [r3, #0]
 80038ee:	685b      	ldreq	r3, [r3, #4]
 80038f0:	1809      	addeq	r1, r1, r0
 80038f2:	6021      	streq	r1, [r4, #0]
 80038f4:	e7ed      	b.n	80038d2 <_free_r+0x1e>
 80038f6:	461a      	mov	r2, r3
 80038f8:	685b      	ldr	r3, [r3, #4]
 80038fa:	b10b      	cbz	r3, 8003900 <_free_r+0x4c>
 80038fc:	42a3      	cmp	r3, r4
 80038fe:	d9fa      	bls.n	80038f6 <_free_r+0x42>
 8003900:	6811      	ldr	r1, [r2, #0]
 8003902:	1850      	adds	r0, r2, r1
 8003904:	42a0      	cmp	r0, r4
 8003906:	d10b      	bne.n	8003920 <_free_r+0x6c>
 8003908:	6820      	ldr	r0, [r4, #0]
 800390a:	4401      	add	r1, r0
 800390c:	1850      	adds	r0, r2, r1
 800390e:	4283      	cmp	r3, r0
 8003910:	6011      	str	r1, [r2, #0]
 8003912:	d1e0      	bne.n	80038d6 <_free_r+0x22>
 8003914:	6818      	ldr	r0, [r3, #0]
 8003916:	685b      	ldr	r3, [r3, #4]
 8003918:	4408      	add	r0, r1
 800391a:	6010      	str	r0, [r2, #0]
 800391c:	6053      	str	r3, [r2, #4]
 800391e:	e7da      	b.n	80038d6 <_free_r+0x22>
 8003920:	d902      	bls.n	8003928 <_free_r+0x74>
 8003922:	230c      	movs	r3, #12
 8003924:	602b      	str	r3, [r5, #0]
 8003926:	e7d6      	b.n	80038d6 <_free_r+0x22>
 8003928:	6820      	ldr	r0, [r4, #0]
 800392a:	1821      	adds	r1, r4, r0
 800392c:	428b      	cmp	r3, r1
 800392e:	bf01      	itttt	eq
 8003930:	6819      	ldreq	r1, [r3, #0]
 8003932:	685b      	ldreq	r3, [r3, #4]
 8003934:	1809      	addeq	r1, r1, r0
 8003936:	6021      	streq	r1, [r4, #0]
 8003938:	6063      	str	r3, [r4, #4]
 800393a:	6054      	str	r4, [r2, #4]
 800393c:	e7cb      	b.n	80038d6 <_free_r+0x22>
 800393e:	bd38      	pop	{r3, r4, r5, pc}
 8003940:	20001b6c 	.word	0x20001b6c

08003944 <sbrk_aligned>:
 8003944:	b570      	push	{r4, r5, r6, lr}
 8003946:	4e0f      	ldr	r6, [pc, #60]	@ (8003984 <sbrk_aligned+0x40>)
 8003948:	460c      	mov	r4, r1
 800394a:	6831      	ldr	r1, [r6, #0]
 800394c:	4605      	mov	r5, r0
 800394e:	b911      	cbnz	r1, 8003956 <sbrk_aligned+0x12>
 8003950:	f000 fbaa 	bl	80040a8 <_sbrk_r>
 8003954:	6030      	str	r0, [r6, #0]
 8003956:	4621      	mov	r1, r4
 8003958:	4628      	mov	r0, r5
 800395a:	f000 fba5 	bl	80040a8 <_sbrk_r>
 800395e:	1c43      	adds	r3, r0, #1
 8003960:	d103      	bne.n	800396a <sbrk_aligned+0x26>
 8003962:	f04f 34ff 	mov.w	r4, #4294967295
 8003966:	4620      	mov	r0, r4
 8003968:	bd70      	pop	{r4, r5, r6, pc}
 800396a:	1cc4      	adds	r4, r0, #3
 800396c:	f024 0403 	bic.w	r4, r4, #3
 8003970:	42a0      	cmp	r0, r4
 8003972:	d0f8      	beq.n	8003966 <sbrk_aligned+0x22>
 8003974:	1a21      	subs	r1, r4, r0
 8003976:	4628      	mov	r0, r5
 8003978:	f000 fb96 	bl	80040a8 <_sbrk_r>
 800397c:	3001      	adds	r0, #1
 800397e:	d1f2      	bne.n	8003966 <sbrk_aligned+0x22>
 8003980:	e7ef      	b.n	8003962 <sbrk_aligned+0x1e>
 8003982:	bf00      	nop
 8003984:	20001b68 	.word	0x20001b68

08003988 <_malloc_r>:
 8003988:	e92d 43f8 	stmdb	sp!, {r3, r4, r5, r6, r7, r8, r9, lr}
 800398c:	1ccd      	adds	r5, r1, #3
 800398e:	f025 0503 	bic.w	r5, r5, #3
 8003992:	3508      	adds	r5, #8
 8003994:	2d0c      	cmp	r5, #12
 8003996:	bf38      	it	cc
 8003998:	250c      	movcc	r5, #12
 800399a:	2d00      	cmp	r5, #0
 800399c:	4606      	mov	r6, r0
 800399e:	db01      	blt.n	80039a4 <_malloc_r+0x1c>
 80039a0:	42a9      	cmp	r1, r5
 80039a2:	d904      	bls.n	80039ae <_malloc_r+0x26>
 80039a4:	230c      	movs	r3, #12
 80039a6:	6033      	str	r3, [r6, #0]
 80039a8:	2000      	movs	r0, #0
 80039aa:	e8bd 83f8 	ldmia.w	sp!, {r3, r4, r5, r6, r7, r8, r9, pc}
 80039ae:	f8df 80d4 	ldr.w	r8, [pc, #212]	@ 8003a84 <_malloc_r+0xfc>
 80039b2:	f000 f869 	bl	8003a88 <__malloc_lock>
 80039b6:	f8d8 3000 	ldr.w	r3, [r8]
 80039ba:	461c      	mov	r4, r3
 80039bc:	bb44      	cbnz	r4, 8003a10 <_malloc_r+0x88>
 80039be:	4629      	mov	r1, r5
 80039c0:	4630      	mov	r0, r6
 80039c2:	f7ff ffbf 	bl	8003944 <sbrk_aligned>
 80039c6:	1c43      	adds	r3, r0, #1
 80039c8:	4604      	mov	r4, r0
 80039ca:	d158      	bne.n	8003a7e <_malloc_r+0xf6>
 80039cc:	f8d8 4000 	ldr.w	r4, [r8]
 80039d0:	4627      	mov	r7, r4
 80039d2:	2f00      	cmp	r7, #0
 80039d4:	d143      	bne.n	8003a5e <_malloc_r+0xd6>
 80039d6:	2c00      	cmp	r4, #0
 80039d8:	d04b      	beq.n	8003a72 <_malloc_r+0xea>
 80039da:	6823      	ldr	r3, [r4, #0]
 80039dc:	4639      	mov	r1, r7
 80039de:	4630      	mov	r0, r6
 80039e0:	eb04 0903 	add.w	r9, r4, r3
 80039e4:	f000 fb60 	bl	80040a8 <_sbrk_r>
 80039e8:	4581      	cmp	r9, r0
 80039ea:	d142      	bne.n	8003a72 <_malloc_r+0xea>
 80039ec:	6821      	ldr	r1, [r4, #0]
 80039ee:	4630      	mov	r0, r6
 80039f0:	1a6d      	subs	r5, r5, r1
 80039f2:	4629      	mov	r1, r5
 80039f4:	f7ff ffa6 	bl	8003944 <sbrk_aligned>
 80039f8:	3001      	adds	r0, #1
 80039fa:	d03a      	beq.n	8003a72 <_malloc_r+0xea>
 80039fc:	6823      	ldr	r3, [r4, #0]
 80039fe:	442b      	add	r3, r5
 8003a00:	6023      	str	r3, [r4, #0]
 8003a02:	f8d8 3000 	ldr.w	r3, [r8]
 8003a06:	685a      	ldr	r2, [r3, #4]
 8003a08:	bb62      	cbnz	r2, 8003a64 <_malloc_r+0xdc>
 8003a0a:	f8c8 7000 	str.w	r7, [r8]
 8003a0e:	e00f      	b.n	8003a30 <_malloc_r+0xa8>
 8003a10:	6822      	ldr	r2, [r4, #0]
 8003a12:	1b52      	subs	r2, r2, r5
 8003a14:	d420      	bmi.n	8003a58 <_malloc_r+0xd0>
 8003a16:	2a0b      	cmp	r2, #11
 8003a18:	d917      	bls.n	8003a4a <_malloc_r+0xc2>
 8003a1a:	1961      	adds	r1, r4, r5
 8003a1c:	42a3      	cmp	r3, r4
 8003a1e:	6025      	str	r5, [r4, #0]
 8003a20:	bf18      	it	ne
 8003a22:	6059      	strne	r1, [r3, #4]
 8003a24:	6863      	ldr	r3, [r4, #4]
 8003a26:	bf08      	it	eq
 8003a28:	f8c8 1000 	streq.w	r1, [r8]
 8003a2c:	5162      	str	r2, [r4, r5]
 8003a2e:	604b      	str	r3, [r1, #4]
 8003a30:	4630      	mov	r0, r6
 8003a32:	f000 f82f 	bl	8003a94 <__malloc_unlock>
 8003a36:	f104 000b 	add.w	r0, r4, #11
 8003a3a:	1d23      	adds	r3, r4, #4
 8003a3c:	f020 0007 	bic.w	r0, r0, #7
 8003a40:	1ac2      	subs	r2, r0, r3
 8003a42:	bf1c      	itt	ne
 8003a44:	1a1b      	subne	r3, r3, r0
 8003a46:	50a3      	strne	r3, [r4, r2]
 8003a48:	e7af      	b.n	80039aa <_malloc_r+0x22>
 8003a4a:	6862      	ldr	r2, [r4, #4]
 8003a4c:	42a3      	cmp	r3, r4
 8003a4e:	bf0c      	ite	eq
 8003a50:	f8c8 2000 	streq.w	r2, [r8]
 8003a54:	605a      	strne	r2, [r3, #4]
 8003a56:	e7eb      	b.n	8003a30 <_malloc_r+0xa8>
 8003a58:	4623      	mov	r3, r4
 8003a5a:	6864      	ldr	r4, [r4, #4]
 8003a5c:	e7ae      	b.n	80039bc <_malloc_r+0x34>
 8003a5e:	463c      	mov	r4, r7
 8003a60:	687f      	ldr	r7, [r7, #4]
 8003a62:	e7b6      	b.n	80039d2 <_malloc_r+0x4a>
 8003a64:	461a      	mov	r2, r3
 8003a66:	685b      	ldr	r3, [r3, #4]
 8003a68:	42a3      	cmp	r3, r4
 8003a6a:	d1fb      	bne.n	8003a64 <_malloc_r+0xdc>
 8003a6c:	2300      	movs	r3, #0
 8003a6e:	6053      	str	r3, [r2, #4]
 8003a70:	e7de      	b.n	8003a30 <_malloc_r+0xa8>
 8003a72:	230c      	movs	r3, #12
 8003a74:	4630      	mov	r0, r6
 8003a76:	6033      	str	r3, [r6, #0]
 8003a78:	f000 f80c 	bl	8003a94 <__malloc_unlock>
 8003a7c:	e794      	b.n	80039a8 <_malloc_r+0x20>
 8003a7e:	6005      	str	r5, [r0, #0]
 8003a80:	e7d6      	b.n	8003a30 <_malloc_r+0xa8>
 8003a82:	bf00      	nop
 8003a84:	20001b6c 	.word	0x20001b6c

08003a88 <__malloc_lock>:
 8003a88:	4801      	ldr	r0, [pc, #4]	@ (8003a90 <__malloc_lock+0x8>)
 8003a8a:	f7ff bf03 	b.w	8003894 <__retarget_lock_acquire_recursive>
 8003a8e:	bf00      	nop
 8003a90:	20001b64 	.word	0x20001b64

08003a94 <__malloc_unlock>:
 8003a94:	4801      	ldr	r0, [pc, #4]	@ (8003a9c <__malloc_unlock+0x8>)
 8003a96:	f7ff befe 	b.w	8003896 <__retarget_lock_release_recursive>
 8003a9a:	bf00      	nop
 8003a9c:	20001b64 	.word	0x20001b64

08003aa0 <__ssputs_r>:
 8003aa0:	e92d 47f0 	stmdb	sp!, {r4, r5, r6, r7, r8, r9, sl, lr}
 8003aa4:	461f      	mov	r7, r3
 8003aa6:	688e      	ldr	r6, [r1, #8]
 8003aa8:	4682      	mov	sl, r0
 8003aaa:	42be      	cmp	r6, r7
 8003aac:	460c      	mov	r4, r1
 8003aae:	4690      	mov	r8, r2
 8003ab0:	680b      	ldr	r3, [r1, #0]
 8003ab2:	d82d      	bhi.n	8003b10 <__ssputs_r+0x70>
 8003ab4:	f9b1 200c 	ldrsh.w	r2, [r1, #12]
 8003ab8:	f412 6f90 	tst.w	r2, #1152	@ 0x480
 8003abc:	d026      	beq.n	8003b0c <__ssputs_r+0x6c>
 8003abe:	6965      	ldr	r5, [r4, #20]
 8003ac0:	6909      	ldr	r1, [r1, #16]
 8003ac2:	eb05 0545 	add.w	r5, r5, r5, lsl #1
 8003ac6:	eba3 0901 	sub.w	r9, r3, r1
 8003aca:	eb05 75d5 	add.w	r5, r5, r5, lsr #31
 8003ace:	1c7b      	adds	r3, r7, #1
 8003ad0:	444b      	add	r3, r9
 8003ad2:	106d      	asrs	r5, r5, #1
 8003ad4:	429d      	cmp	r5, r3
 8003ad6:	bf38      	it	cc
 8003ad8:	461d      	movcc	r5, r3
 8003ada:	0553      	lsls	r3, r2, #21
 8003adc:	d527      	bpl.n	8003b2e <__ssputs_r+0x8e>
 8003ade:	4629      	mov	r1, r5
 8003ae0:	f7ff ff52 	bl	8003988 <_malloc_r>
 8003ae4:	4606      	mov	r6, r0
 8003ae6:	b360      	cbz	r0, 8003b42 <__ssputs_r+0xa2>
 8003ae8:	464a      	mov	r2, r9
 8003aea:	6921      	ldr	r1, [r4, #16]
 8003aec:	f7ff fed4 	bl	8003898 <memcpy>
 8003af0:	89a3      	ldrh	r3, [r4, #12]
 8003af2:	f423 6390 	bic.w	r3, r3, #1152	@ 0x480
 8003af6:	f043 0380 	orr.w	r3, r3, #128	@ 0x80
 8003afa:	81a3      	strh	r3, [r4, #12]
 8003afc:	6126      	str	r6, [r4, #16]
 8003afe:	444e      	add	r6, r9
 8003b00:	6026      	str	r6, [r4, #0]
 8003b02:	463e      	mov	r6, r7
 8003b04:	6165      	str	r5, [r4, #20]
 8003b06:	eba5 0509 	sub.w	r5, r5, r9
 8003b0a:	60a5      	str	r5, [r4, #8]
 8003b0c:	42be      	cmp	r6, r7
 8003b0e:	d900      	bls.n	8003b12 <__ssputs_r+0x72>
 8003b10:	463e      	mov	r6, r7
 8003b12:	4632      	mov	r2, r6
 8003b14:	4641      	mov	r1, r8
 8003b16:	6820      	ldr	r0, [r4, #0]
 8003b18:	f000 faac 	bl	8004074 <memmove>
 8003b1c:	2000      	movs	r0, #0
 8003b1e:	68a3      	ldr	r3, [r4, #8]
 8003b20:	1b9b      	subs	r3, r3, r6
 8003b22:	60a3      	str	r3, [r4, #8]
 8003b24:	6823      	ldr	r3, [r4, #0]
 8003b26:	4433      	add	r3, r6
 8003b28:	6023      	str	r3, [r4, #0]
 8003b2a:	e8bd 87f0 	ldmia.w	sp!, {r4, r5, r6, r7, r8, r9, sl, pc}
 8003b2e:	462a      	mov	r2, r5
 8003b30:	f000 fad8 	bl	80040e4 <_realloc_r>
 8003b34:	4606      	mov	r6, r0
 8003b36:	2800      	cmp	r0, #0
 8003b38:	d1e0      	bne.n	8003afc <__ssputs_r+0x5c>
 8003b3a:	4650      	mov	r0, sl
 8003b3c:	6921      	ldr	r1, [r4, #16]
 8003b3e:	f7ff feb9 	bl	80038b4 <_free_r>
 8003b42:	230c      	movs	r3, #12
 8003b44:	f8ca 3000 	str.w	r3, [sl]
 8003b48:	89a3      	ldrh	r3, [r4, #12]
 8003b4a:	f04f 30ff 	mov.w	r0, #4294967295
 8003b4e:	f043 0340 	orr.w	r3, r3, #64	@ 0x40
 8003b52:	81a3      	strh	r3, [r4, #12]
 8003b54:	e7e9      	b.n	8003b2a <__ssputs_r+0x8a>
	...

08003b58 <_svfiprintf_r>:
 8003b58:	e92d 4ff0 	stmdb	sp!, {r4, r5, r6, r7, r8, r9, sl, fp, lr}
 8003b5c:	4698      	mov	r8, r3
 8003b5e:	898b      	ldrh	r3, [r1, #12]
 8003b60:	4607      	mov	r7, r0
 8003b62:	061b      	lsls	r3, r3, #24
 8003b64:	460d      	mov	r5, r1
 8003b66:	4614      	mov	r4, r2
 8003b68:	b09d      	sub	sp, #116	@ 0x74
 8003b6a:	d510      	bpl.n	8003b8e <_svfiprintf_r+0x36>
 8003b6c:	690b      	ldr	r3, [r1, #16]
 8003b6e:	b973      	cbnz	r3, 8003b8e <_svfiprintf_r+0x36>
 8003b70:	2140      	movs	r1, #64	@ 0x40
 8003b72:	f7ff ff09 	bl	8003988 <_malloc_r>
 8003b76:	6028      	str	r0, [r5, #0]
 8003b78:	6128      	str	r0, [r5, #16]
 8003b7a:	b930      	cbnz	r0, 8003b8a <_svfiprintf_r+0x32>
 8003b7c:	230c      	movs	r3, #12
 8003b7e:	603b      	str	r3, [r7, #0]
 8003b80:	f04f 30ff 	mov.w	r0, #4294967295
 8003b84:	b01d      	add	sp, #116	@ 0x74
 8003b86:	e8bd 8ff0 	ldmia.w	sp!, {r4, r5, r6, r7, r8, r9, sl, fp, pc}
 8003b8a:	2340      	movs	r3, #64	@ 0x40
 8003b8c:	616b      	str	r3, [r5, #20]
 8003b8e:	2300      	movs	r3, #0
 8003b90:	9309      	str	r3, [sp, #36]	@ 0x24
 8003b92:	2320      	movs	r3, #32
 8003b94:	f88d 3029 	strb.w	r3, [sp, #41]	@ 0x29
 8003b98:	2330      	movs	r3, #48	@ 0x30
 8003b9a:	f04f 0901 	mov.w	r9, #1
 8003b9e:	f8cd 800c 	str.w	r8, [sp, #12]
 8003ba2:	f8df 8198 	ldr.w	r8, [pc, #408]	@ 8003d3c <_svfiprintf_r+0x1e4>
 8003ba6:	f88d 302a 	strb.w	r3, [sp, #42]	@ 0x2a
 8003baa:	4623      	mov	r3, r4
 8003bac:	469a      	mov	sl, r3
 8003bae:	f813 2b01 	ldrb.w	r2, [r3], #1
 8003bb2:	b10a      	cbz	r2, 8003bb8 <_svfiprintf_r+0x60>
 8003bb4:	2a25      	cmp	r2, #37	@ 0x25
 8003bb6:	d1f9      	bne.n	8003bac <_svfiprintf_r+0x54>
 8003bb8:	ebba 0b04 	subs.w	fp, sl, r4
 8003bbc:	d00b      	beq.n	8003bd6 <_svfiprintf_r+0x7e>
 8003bbe:	465b      	mov	r3, fp
 8003bc0:	4622      	mov	r2, r4
 8003bc2:	4629      	mov	r1, r5
 8003bc4:	4638      	mov	r0, r7
 8003bc6:	f7ff ff6b 	bl	8003aa0 <__ssputs_r>
 8003bca:	3001      	adds	r0, #1
 8003bcc:	f000 80a7 	beq.w	8003d1e <_svfiprintf_r+0x1c6>
 8003bd0:	9a09      	ldr	r2, [sp, #36]	@ 0x24
 8003bd2:	445a      	add	r2, fp
 8003bd4:	9209      	str	r2, [sp, #36]	@ 0x24
 8003bd6:	f89a 3000 	ldrb.w	r3, [sl]
 8003bda:	2b00      	cmp	r3, #0
 8003bdc:	f000 809f 	beq.w	8003d1e <_svfiprintf_r+0x1c6>
 8003be0:	2300      	movs	r3, #0
 8003be2:	f04f 32ff 	mov.w	r2, #4294967295
 8003be6:	e9cd 2305 	strd	r2, r3, [sp, #20]
 8003bea:	f10a 0a01 	add.w	sl, sl, #1
 8003bee:	9304      	str	r3, [sp, #16]
 8003bf0:	9307      	str	r3, [sp, #28]
 8003bf2:	f88d 3053 	strb.w	r3, [sp, #83]	@ 0x53
 8003bf6:	931a      	str	r3, [sp, #104]	@ 0x68
 8003bf8:	4654      	mov	r4, sl
 8003bfa:	2205      	movs	r2, #5
 8003bfc:	f814 1b01 	ldrb.w	r1, [r4], #1
 8003c00:	484e      	ldr	r0, [pc, #312]	@ (8003d3c <_svfiprintf_r+0x1e4>)
 8003c02:	f000 fa61 	bl	80040c8 <memchr>
 8003c06:	9a04      	ldr	r2, [sp, #16]
 8003c08:	b9d8      	cbnz	r0, 8003c42 <_svfiprintf_r+0xea>
 8003c0a:	06d0      	lsls	r0, r2, #27
 8003c0c:	bf44      	itt	mi
 8003c0e:	2320      	movmi	r3, #32
 8003c10:	f88d 3053 	strbmi.w	r3, [sp, #83]	@ 0x53
 8003c14:	0711      	lsls	r1, r2, #28
 8003c16:	bf44      	itt	mi
 8003c18:	232b      	movmi	r3, #43	@ 0x2b
 8003c1a:	f88d 3053 	strbmi.w	r3, [sp, #83]	@ 0x53
 8003c1e:	f89a 3000 	ldrb.w	r3, [sl]
 8003c22:	2b2a      	cmp	r3, #42	@ 0x2a
 8003c24:	d015      	beq.n	8003c52 <_svfiprintf_r+0xfa>
 8003c26:	4654      	mov	r4, sl
 8003c28:	2000      	movs	r0, #0
 8003c2a:	f04f 0c0a 	mov.w	ip, #10
 8003c2e:	9a07      	ldr	r2, [sp, #28]
 8003c30:	4621      	mov	r1, r4
 8003c32:	f811 3b01 	ldrb.w	r3, [r1], #1
 8003c36:	3b30      	subs	r3, #48	@ 0x30
 8003c38:	2b09      	cmp	r3, #9
 8003c3a:	d94b      	bls.n	8003cd4 <_svfiprintf_r+0x17c>
 8003c3c:	b1b0      	cbz	r0, 8003c6c <_svfiprintf_r+0x114>
 8003c3e:	9207      	str	r2, [sp, #28]
 8003c40:	e014      	b.n	8003c6c <_svfiprintf_r+0x114>
 8003c42:	eba0 0308 	sub.w	r3, r0, r8
 8003c46:	fa09 f303 	lsl.w	r3, r9, r3
 8003c4a:	4313      	orrs	r3, r2
 8003c4c:	46a2      	mov	sl, r4
 8003c4e:	9304      	str	r3, [sp, #16]
 8003c50:	e7d2      	b.n	8003bf8 <_svfiprintf_r+0xa0>
 8003c52:	9b03      	ldr	r3, [sp, #12]
 8003c54:	1d19      	adds	r1, r3, #4
 8003c56:	681b      	ldr	r3, [r3, #0]
 8003c58:	9103      	str	r1, [sp, #12]
 8003c5a:	2b00      	cmp	r3, #0
 8003c5c:	bfbb      	ittet	lt
 8003c5e:	425b      	neglt	r3, r3
 8003c60:	f042 0202 	orrlt.w	r2, r2, #2
 8003c64:	9307      	strge	r3, [sp, #28]
 8003c66:	9307      	strlt	r3, [sp, #28]
 8003c68:	bfb8      	it	lt
 8003c6a:	9204      	strlt	r2, [sp, #16]
 8003c6c:	7823      	ldrb	r3, [r4, #0]
 8003c6e:	2b2e      	cmp	r3, #46	@ 0x2e
 8003c70:	d10a      	bne.n	8003c88 <_svfiprintf_r+0x130>
 8003c72:	7863      	ldrb	r3, [r4, #1]
 8003c74:	2b2a      	cmp	r3, #42	@ 0x2a
 8003c76:	d132      	bne.n	8003cde <_svfiprintf_r+0x186>
 8003c78:	9b03      	ldr	r3, [sp, #12]
 8003c7a:	3402      	adds	r4, #2
 8003c7c:	1d1a      	adds	r2, r3, #4
 8003c7e:	681b      	ldr	r3, [r3, #0]
 8003c80:	9203      	str	r2, [sp, #12]
 8003c82:	ea43 73e3 	orr.w	r3, r3, r3, asr #31
 8003c86:	9305      	str	r3, [sp, #20]
 8003c88:	f8df a0b4 	ldr.w	sl, [pc, #180]	@ 8003d40 <_svfiprintf_r+0x1e8>
 8003c8c:	2203      	movs	r2, #3
 8003c8e:	4650      	mov	r0, sl
 8003c90:	7821      	ldrb	r1, [r4, #0]
 8003c92:	f000 fa19 	bl	80040c8 <memchr>
 8003c96:	b138      	cbz	r0, 8003ca8 <_svfiprintf_r+0x150>
 8003c98:	2240      	movs	r2, #64	@ 0x40
 8003c9a:	9b04      	ldr	r3, [sp, #16]
 8003c9c:	eba0 000a 	sub.w	r0, r0, sl
 8003ca0:	4082      	lsls	r2, r0
 8003ca2:	4313      	orrs	r3, r2
 8003ca4:	3401      	adds	r4, #1
 8003ca6:	9304      	str	r3, [sp, #16]
 8003ca8:	f814 1b01 	ldrb.w	r1, [r4], #1
 8003cac:	2206      	movs	r2, #6
 8003cae:	4825      	ldr	r0, [pc, #148]	@ (8003d44 <_svfiprintf_r+0x1ec>)
 8003cb0:	f88d 1028 	strb.w	r1, [sp, #40]	@ 0x28
 8003cb4:	f000 fa08 	bl	80040c8 <memchr>
 8003cb8:	2800      	cmp	r0, #0
 8003cba:	d036      	beq.n	8003d2a <_svfiprintf_r+0x1d2>
 8003cbc:	4b22      	ldr	r3, [pc, #136]	@ (8003d48 <_svfiprintf_r+0x1f0>)
 8003cbe:	bb1b      	cbnz	r3, 8003d08 <_svfiprintf_r+0x1b0>
 8003cc0:	9b03      	ldr	r3, [sp, #12]
 8003cc2:	3307      	adds	r3, #7
 8003cc4:	f023 0307 	bic.w	r3, r3, #7
 8003cc8:	3308      	adds	r3, #8
 8003cca:	9303      	str	r3, [sp, #12]
 8003ccc:	9b09      	ldr	r3, [sp, #36]	@ 0x24
 8003cce:	4433      	add	r3, r6
 8003cd0:	9309      	str	r3, [sp, #36]	@ 0x24
 8003cd2:	e76a      	b.n	8003baa <_svfiprintf_r+0x52>
 8003cd4:	460c      	mov	r4, r1
 8003cd6:	2001      	movs	r0, #1
 8003cd8:	fb0c 3202 	mla	r2, ip, r2, r3
 8003cdc:	e7a8      	b.n	8003c30 <_svfiprintf_r+0xd8>
 8003cde:	2300      	movs	r3, #0
 8003ce0:	f04f 0c0a 	mov.w	ip, #10
 8003ce4:	4619      	mov	r1, r3
 8003ce6:	3401      	adds	r4, #1
 8003ce8:	9305      	str	r3, [sp, #20]
 8003cea:	4620      	mov	r0, r4
 8003cec:	f810 2b01 	ldrb.w	r2, [r0], #1
 8003cf0:	3a30      	subs	r2, #48	@ 0x30
 8003cf2:	2a09      	cmp	r2, #9
 8003cf4:	d903      	bls.n	8003cfe <_svfiprintf_r+0x1a6>
 8003cf6:	2b00      	cmp	r3, #0
 8003cf8:	d0c6      	beq.n	8003c88 <_svfiprintf_r+0x130>
 8003cfa:	9105      	str	r1, [sp, #20]
 8003cfc:	e7c4      	b.n	8003c88 <_svfiprintf_r+0x130>
 8003cfe:	4604      	mov	r4, r0
 8003d00:	2301      	movs	r3, #1
 8003d02:	fb0c 2101 	mla	r1, ip, r1, r2
 8003d06:	e7f0      	b.n	8003cea <_svfiprintf_r+0x192>
 8003d08:	ab03      	add	r3, sp, #12
 8003d0a:	9300      	str	r3, [sp, #0]
 8003d0c:	462a      	mov	r2, r5
 8003d0e:	4638      	mov	r0, r7
 8003d10:	4b0e      	ldr	r3, [pc, #56]	@ (8003d4c <_svfiprintf_r+0x1f4>)
 8003d12:	a904      	add	r1, sp, #16
 8003d14:	f3af 8000 	nop.w
 8003d18:	1c42      	adds	r2, r0, #1
 8003d1a:	4606      	mov	r6, r0
 8003d1c:	d1d6      	bne.n	8003ccc <_svfiprintf_r+0x174>
 8003d1e:	89ab      	ldrh	r3, [r5, #12]
 8003d20:	065b      	lsls	r3, r3, #25
 8003d22:	f53f af2d 	bmi.w	8003b80 <_svfiprintf_r+0x28>
 8003d26:	9809      	ldr	r0, [sp, #36]	@ 0x24
 8003d28:	e72c      	b.n	8003b84 <_svfiprintf_r+0x2c>
 8003d2a:	ab03      	add	r3, sp, #12
 8003d2c:	9300      	str	r3, [sp, #0]
 8003d2e:	462a      	mov	r2, r5
 8003d30:	4638      	mov	r0, r7
 8003d32:	4b06      	ldr	r3, [pc, #24]	@ (8003d4c <_svfiprintf_r+0x1f4>)
 8003d34:	a904      	add	r1, sp, #16
 8003d36:	f000 f87d 	bl	8003e34 <_printf_i>
 8003d3a:	e7ed      	b.n	8003d18 <_svfiprintf_r+0x1c0>
 8003d3c:	08005a6c 	.word	0x08005a6c
 8003d40:	08005a72 	.word	0x08005a72
 8003d44:	08005a76 	.word	0x08005a76
 8003d48:	00000000 	.word	0x00000000
 8003d4c:	08003aa1 	.word	0x08003aa1

08003d50 <_printf_common>:
 8003d50:	e92d 47f0 	stmdb	sp!, {r4, r5, r6, r7, r8, r9, sl, lr}
 8003d54:	4616      	mov	r6, r2
 8003d56:	4698      	mov	r8, r3
 8003d58:	688a      	ldr	r2, [r1, #8]
 8003d5a:	690b      	ldr	r3, [r1, #16]
 8003d5c:	4607      	mov	r7, r0
 8003d5e:	4293      	cmp	r3, r2
 8003d60:	bfb8      	it	lt
 8003d62:	4613      	movlt	r3, r2
 8003d64:	6033      	str	r3, [r6, #0]
 8003d66:	f891 2043 	ldrb.w	r2, [r1, #67]	@ 0x43
 8003d6a:	460c      	mov	r4, r1
 8003d6c:	f8dd 9020 	ldr.w	r9, [sp, #32]
 8003d70:	b10a      	cbz	r2, 8003d76 <_printf_common+0x26>
 8003d72:	3301      	adds	r3, #1
 8003d74:	6033      	str	r3, [r6, #0]
 8003d76:	6823      	ldr	r3, [r4, #0]
 8003d78:	0699      	lsls	r1, r3, #26
 8003d7a:	bf42      	ittt	mi
 8003d7c:	6833      	ldrmi	r3, [r6, #0]
 8003d7e:	3302      	addmi	r3, #2
 8003d80:	6033      	strmi	r3, [r6, #0]
 8003d82:	6825      	ldr	r5, [r4, #0]
 8003d84:	f015 0506 	ands.w	r5, r5, #6
 8003d88:	d106      	bne.n	8003d98 <_printf_common+0x48>
 8003d8a:	f104 0a19 	add.w	sl, r4, #25
 8003d8e:	68e3      	ldr	r3, [r4, #12]
 8003d90:	6832      	ldr	r2, [r6, #0]
 8003d92:	1a9b      	subs	r3, r3, r2
 8003d94:	42ab      	cmp	r3, r5
 8003d96:	dc2b      	bgt.n	8003df0 <_printf_common+0xa0>
 8003d98:	f894 3043 	ldrb.w	r3, [r4, #67]	@ 0x43
 8003d9c:	6822      	ldr	r2, [r4, #0]
 8003d9e:	3b00      	subs	r3, #0
 8003da0:	bf18      	it	ne
 8003da2:	2301      	movne	r3, #1
 8003da4:	0692      	lsls	r2, r2, #26
 8003da6:	d430      	bmi.n	8003e0a <_printf_common+0xba>
 8003da8:	4641      	mov	r1, r8
 8003daa:	4638      	mov	r0, r7
 8003dac:	f104 0243 	add.w	r2, r4, #67	@ 0x43
 8003db0:	47c8      	blx	r9
 8003db2:	3001      	adds	r0, #1
 8003db4:	d023      	beq.n	8003dfe <_printf_common+0xae>
 8003db6:	6823      	ldr	r3, [r4, #0]
 8003db8:	6922      	ldr	r2, [r4, #16]
 8003dba:	f003 0306 	and.w	r3, r3, #6
 8003dbe:	2b04      	cmp	r3, #4
 8003dc0:	bf14      	ite	ne
 8003dc2:	2500      	movne	r5, #0
 8003dc4:	6833      	ldreq	r3, [r6, #0]
 8003dc6:	f04f 0600 	mov.w	r6, #0
 8003dca:	bf08      	it	eq
 8003dcc:	68e5      	ldreq	r5, [r4, #12]
 8003dce:	f104 041a 	add.w	r4, r4, #26
 8003dd2:	bf08      	it	eq
 8003dd4:	1aed      	subeq	r5, r5, r3
 8003dd6:	f854 3c12 	ldr.w	r3, [r4, #-18]
 8003dda:	bf08      	it	eq
 8003ddc:	ea25 75e5 	biceq.w	r5, r5, r5, asr #31
 8003de0:	4293      	cmp	r3, r2
 8003de2:	bfc4      	itt	gt
 8003de4:	1a9b      	subgt	r3, r3, r2
 8003de6:	18ed      	addgt	r5, r5, r3
 8003de8:	42b5      	cmp	r5, r6
 8003dea:	d11a      	bne.n	8003e22 <_printf_common+0xd2>
 8003dec:	2000      	movs	r0, #0
 8003dee:	e008      	b.n	8003e02 <_printf_common+0xb2>
 8003df0:	2301      	movs	r3, #1
 8003df2:	4652      	mov	r2, sl
 8003df4:	4641      	mov	r1, r8
 8003df6:	4638      	mov	r0, r7
 8003df8:	47c8      	blx	r9
 8003dfa:	3001      	adds	r0, #1
 8003dfc:	d103      	bne.n	8003e06 <_printf_common+0xb6>
 8003dfe:	f04f 30ff 	mov.w	r0, #4294967295
 8003e02:	e8bd 87f0 	ldmia.w	sp!, {r4, r5, r6, r7, r8, r9, sl, pc}
 8003e06:	3501      	adds	r5, #1
 8003e08:	e7c1      	b.n	8003d8e <_printf_common+0x3e>
 8003e0a:	2030      	movs	r0, #48	@ 0x30
 8003e0c:	18e1      	adds	r1, r4, r3
 8003e0e:	f881 0043 	strb.w	r0, [r1, #67]	@ 0x43
 8003e12:	1c5a      	adds	r2, r3, #1
 8003e14:	f894 1045 	ldrb.w	r1, [r4, #69]	@ 0x45
 8003e18:	4422      	add	r2, r4
 8003e1a:	3302      	adds	r3, #2
 8003e1c:	f882 1043 	strb.w	r1, [r2, #67]	@ 0x43
 8003e20:	e7c2      	b.n	8003da8 <_printf_common+0x58>
 8003e22:	2301      	movs	r3, #1
 8003e24:	4622      	mov	r2, r4
 8003e26:	4641      	mov	r1, r8
 8003e28:	4638      	mov	r0, r7
 8003e2a:	47c8      	blx	r9
 8003e2c:	3001      	adds	r0, #1
 8003e2e:	d0e6      	beq.n	8003dfe <_printf_common+0xae>
 8003e30:	3601      	adds	r6, #1
 8003e32:	e7d9      	b.n	8003de8 <_printf_common+0x98>

08003e34 <_printf_i>:
 8003e34:	e92d 47ff 	stmdb	sp!, {r0, r1, r2, r3, r4, r5, r6, r7, r8, r9, sl, lr}
 8003e38:	7e0f      	ldrb	r7, [r1, #24]
 8003e3a:	4691      	mov	r9, r2
 8003e3c:	2f78      	cmp	r7, #120	@ 0x78
 8003e3e:	4680      	mov	r8, r0
 8003e40:	460c      	mov	r4, r1
 8003e42:	469a      	mov	sl, r3
 8003e44:	9e0c      	ldr	r6, [sp, #48]	@ 0x30
 8003e46:	f101 0243 	add.w	r2, r1, #67	@ 0x43
 8003e4a:	d807      	bhi.n	8003e5c <_printf_i+0x28>
 8003e4c:	2f62      	cmp	r7, #98	@ 0x62
 8003e4e:	d80a      	bhi.n	8003e66 <_printf_i+0x32>
 8003e50:	2f00      	cmp	r7, #0
 8003e52:	f000 80d3 	beq.w	8003ffc <_printf_i+0x1c8>
 8003e56:	2f58      	cmp	r7, #88	@ 0x58
 8003e58:	f000 80ba 	beq.w	8003fd0 <_printf_i+0x19c>
 8003e5c:	f104 0642 	add.w	r6, r4, #66	@ 0x42
 8003e60:	f884 7042 	strb.w	r7, [r4, #66]	@ 0x42
 8003e64:	e03a      	b.n	8003edc <_printf_i+0xa8>
 8003e66:	f1a7 0363 	sub.w	r3, r7, #99	@ 0x63
 8003e6a:	2b15      	cmp	r3, #21
 8003e6c:	d8f6      	bhi.n	8003e5c <_printf_i+0x28>
 8003e6e:	a101      	add	r1, pc, #4	@ (adr r1, 8003e74 <_printf_i+0x40>)
 8003e70:	f851 f023 	ldr.w	pc, [r1, r3, lsl #2]
 8003e74:	08003ecd 	.word	0x08003ecd
 8003e78:	08003ee1 	.word	0x08003ee1
 8003e7c:	08003e5d 	.word	0x08003e5d
 8003e80:	08003e5d 	.word	0x08003e5d
 8003e84:	08003e5d 	.word	0x08003e5d
 8003e88:	08003e5d 	.word	0x08003e5d
 8003e8c:	08003ee1 	.word	0x08003ee1
 8003e90:	08003e5d 	.word	0x08003e5d
 8003e94:	08003e5d 	.word	0x08003e5d
 8003e98:	08003e5d 	.word	0x08003e5d
 8003e9c:	08003e5d 	.word	0x08003e5d
 8003ea0:	08003fe3 	.word	0x08003fe3
 8003ea4:	08003f0b 	.word	0x08003f0b
 8003ea8:	08003f9d 	.word	0x08003f9d
 8003eac:	08003e5d 	.word	0x08003e5d
 8003eb0:	08003e5d 	.word	0x08003e5d
 8003eb4:	08004005 	.word	0x08004005
 8003eb8:	08003e5d 	.word	0x08003e5d
 8003ebc:	08003f0b 	.word	0x08003f0b
 8003ec0:	08003e5d 	.word	0x08003e5d
 8003ec4:	08003e5d 	.word	0x08003e5d
 8003ec8:	08003fa5 	.word	0x08003fa5
 8003ecc:	6833      	ldr	r3, [r6, #0]
 8003ece:	1d1a      	adds	r2, r3, #4
 8003ed0:	681b      	ldr	r3, [r3, #0]
 8003ed2:	6032      	str	r2, [r6, #0]
 8003ed4:	f104 0642 	add.w	r6, r4, #66	@ 0x42
 8003ed8:	f884 3042 	strb.w	r3, [r4, #66]	@ 0x42
 8003edc:	2301      	movs	r3, #1
 8003ede:	e09e      	b.n	800401e <_printf_i+0x1ea>
 8003ee0:	6833      	ldr	r3, [r6, #0]
 8003ee2:	6820      	ldr	r0, [r4, #0]
 8003ee4:	1d19      	adds	r1, r3, #4
 8003ee6:	6031      	str	r1, [r6, #0]
 8003ee8:	0606      	lsls	r6, r0, #24
 8003eea:	d501      	bpl.n	8003ef0 <_printf_i+0xbc>
 8003eec:	681d      	ldr	r5, [r3, #0]
 8003eee:	e003      	b.n	8003ef8 <_printf_i+0xc4>
 8003ef0:	0645      	lsls	r5, r0, #25
 8003ef2:	d5fb      	bpl.n	8003eec <_printf_i+0xb8>
 8003ef4:	f9b3 5000 	ldrsh.w	r5, [r3]
 8003ef8:	2d00      	cmp	r5, #0
 8003efa:	da03      	bge.n	8003f04 <_printf_i+0xd0>
 8003efc:	232d      	movs	r3, #45	@ 0x2d
 8003efe:	426d      	negs	r5, r5
 8003f00:	f884 3043 	strb.w	r3, [r4, #67]	@ 0x43
 8003f04:	230a      	movs	r3, #10
 8003f06:	4859      	ldr	r0, [pc, #356]	@ (800406c <_printf_i+0x238>)
 8003f08:	e011      	b.n	8003f2e <_printf_i+0xfa>
 8003f0a:	6821      	ldr	r1, [r4, #0]
 8003f0c:	6833      	ldr	r3, [r6, #0]
 8003f0e:	0608      	lsls	r0, r1, #24
 8003f10:	f853 5b04 	ldr.w	r5, [r3], #4
 8003f14:	d402      	bmi.n	8003f1c <_printf_i+0xe8>
 8003f16:	0649      	lsls	r1, r1, #25
 8003f18:	bf48      	it	mi
 8003f1a:	b2ad      	uxthmi	r5, r5
 8003f1c:	2f6f      	cmp	r7, #111	@ 0x6f
 8003f1e:	6033      	str	r3, [r6, #0]
 8003f20:	bf14      	ite	ne
 8003f22:	230a      	movne	r3, #10
 8003f24:	2308      	moveq	r3, #8
 8003f26:	4851      	ldr	r0, [pc, #324]	@ (800406c <_printf_i+0x238>)
 8003f28:	2100      	movs	r1, #0
 8003f2a:	f884 1043 	strb.w	r1, [r4, #67]	@ 0x43
 8003f2e:	6866      	ldr	r6, [r4, #4]
 8003f30:	2e00      	cmp	r6, #0
 8003f32:	bfa8      	it	ge
 8003f34:	6821      	ldrge	r1, [r4, #0]
 8003f36:	60a6      	str	r6, [r4, #8]
 8003f38:	bfa4      	itt	ge
 8003f3a:	f021 0104 	bicge.w	r1, r1, #4
 8003f3e:	6021      	strge	r1, [r4, #0]
 8003f40:	b90d      	cbnz	r5, 8003f46 <_printf_i+0x112>
 8003f42:	2e00      	cmp	r6, #0
 8003f44:	d04b      	beq.n	8003fde <_printf_i+0x1aa>
 8003f46:	4616      	mov	r6, r2
 8003f48:	fbb5 f1f3 	udiv	r1, r5, r3
 8003f4c:	fb03 5711 	mls	r7, r3, r1, r5
 8003f50:	5dc7      	ldrb	r7, [r0, r7]
 8003f52:	f806 7d01 	strb.w	r7, [r6, #-1]!
 8003f56:	462f      	mov	r7, r5
 8003f58:	42bb      	cmp	r3, r7
 8003f5a:	460d      	mov	r5, r1
 8003f5c:	d9f4      	bls.n	8003f48 <_printf_i+0x114>
 8003f5e:	2b08      	cmp	r3, #8
 8003f60:	d10b      	bne.n	8003f7a <_printf_i+0x146>
 8003f62:	6823      	ldr	r3, [r4, #0]
 8003f64:	07df      	lsls	r7, r3, #31
 8003f66:	d508      	bpl.n	8003f7a <_printf_i+0x146>
 8003f68:	6923      	ldr	r3, [r4, #16]
 8003f6a:	6861      	ldr	r1, [r4, #4]
 8003f6c:	4299      	cmp	r1, r3
 8003f6e:	bfde      	ittt	le
 8003f70:	2330      	movle	r3, #48	@ 0x30
 8003f72:	f806 3c01 	strble.w	r3, [r6, #-1]
 8003f76:	f106 36ff 	addle.w	r6, r6, #4294967295
 8003f7a:	1b92      	subs	r2, r2, r6
 8003f7c:	6122      	str	r2, [r4, #16]
 8003f7e:	464b      	mov	r3, r9
 8003f80:	4621      	mov	r1, r4
 8003f82:	4640      	mov	r0, r8
 8003f84:	f8cd a000 	str.w	sl, [sp]
 8003f88:	aa03      	add	r2, sp, #12
 8003f8a:	f7ff fee1 	bl	8003d50 <_printf_common>
 8003f8e:	3001      	adds	r0, #1
 8003f90:	d14a      	bne.n	8004028 <_printf_i+0x1f4>
 8003f92:	f04f 30ff 	mov.w	r0, #4294967295
 8003f96:	b004      	add	sp, #16
 8003f98:	e8bd 87f0 	ldmia.w	sp!, {r4, r5, r6, r7, r8, r9, sl, pc}
 8003f9c:	6823      	ldr	r3, [r4, #0]
 8003f9e:	f043 0320 	orr.w	r3, r3, #32
 8003fa2:	6023      	str	r3, [r4, #0]
 8003fa4:	2778      	movs	r7, #120	@ 0x78
 8003fa6:	4832      	ldr	r0, [pc, #200]	@ (8004070 <_printf_i+0x23c>)
 8003fa8:	f884 7045 	strb.w	r7, [r4, #69]	@ 0x45
 8003fac:	6823      	ldr	r3, [r4, #0]
 8003fae:	6831      	ldr	r1, [r6, #0]
 8003fb0:	061f      	lsls	r7, r3, #24
 8003fb2:	f851 5b04 	ldr.w	r5, [r1], #4
 8003fb6:	d402      	bmi.n	8003fbe <_printf_i+0x18a>
 8003fb8:	065f      	lsls	r7, r3, #25
 8003fba:	bf48      	it	mi
 8003fbc:	b2ad      	uxthmi	r5, r5
 8003fbe:	6031      	str	r1, [r6, #0]
 8003fc0:	07d9      	lsls	r1, r3, #31
 8003fc2:	bf44      	itt	mi
 8003fc4:	f043 0320 	orrmi.w	r3, r3, #32
 8003fc8:	6023      	strmi	r3, [r4, #0]
 8003fca:	b11d      	cbz	r5, 8003fd4 <_printf_i+0x1a0>
 8003fcc:	2310      	movs	r3, #16
 8003fce:	e7ab      	b.n	8003f28 <_printf_i+0xf4>
 8003fd0:	4826      	ldr	r0, [pc, #152]	@ (800406c <_printf_i+0x238>)
 8003fd2:	e7e9      	b.n	8003fa8 <_printf_i+0x174>
 8003fd4:	6823      	ldr	r3, [r4, #0]
 8003fd6:	f023 0320 	bic.w	r3, r3, #32
 8003fda:	6023      	str	r3, [r4, #0]
 8003fdc:	e7f6      	b.n	8003fcc <_printf_i+0x198>
 8003fde:	4616      	mov	r6, r2
 8003fe0:	e7bd      	b.n	8003f5e <_printf_i+0x12a>
 8003fe2:	6833      	ldr	r3, [r6, #0]
 8003fe4:	6825      	ldr	r5, [r4, #0]
 8003fe6:	1d18      	adds	r0, r3, #4
 8003fe8:	6961      	ldr	r1, [r4, #20]
 8003fea:	6030      	str	r0, [r6, #0]
 8003fec:	062e      	lsls	r6, r5, #24
 8003fee:	681b      	ldr	r3, [r3, #0]
 8003ff0:	d501      	bpl.n	8003ff6 <_printf_i+0x1c2>
 8003ff2:	6019      	str	r1, [r3, #0]
 8003ff4:	e002      	b.n	8003ffc <_printf_i+0x1c8>
 8003ff6:	0668      	lsls	r0, r5, #25
 8003ff8:	d5fb      	bpl.n	8003ff2 <_printf_i+0x1be>
 8003ffa:	8019      	strh	r1, [r3, #0]
 8003ffc:	2300      	movs	r3, #0
 8003ffe:	4616      	mov	r6, r2
 8004000:	6123      	str	r3, [r4, #16]
 8004002:	e7bc      	b.n	8003f7e <_printf_i+0x14a>
 8004004:	6833      	ldr	r3, [r6, #0]
 8004006:	2100      	movs	r1, #0
 8004008:	1d1a      	adds	r2, r3, #4
 800400a:	6032      	str	r2, [r6, #0]
 800400c:	681e      	ldr	r6, [r3, #0]
 800400e:	6862      	ldr	r2, [r4, #4]
 8004010:	4630      	mov	r0, r6
 8004012:	f000 f859 	bl	80040c8 <memchr>
 8004016:	b108      	cbz	r0, 800401c <_printf_i+0x1e8>
 8004018:	1b80      	subs	r0, r0, r6
 800401a:	6060      	str	r0, [r4, #4]
 800401c:	6863      	ldr	r3, [r4, #4]
 800401e:	6123      	str	r3, [r4, #16]
 8004020:	2300      	movs	r3, #0
 8004022:	f884 3043 	strb.w	r3, [r4, #67]	@ 0x43
 8004026:	e7aa      	b.n	8003f7e <_printf_i+0x14a>
 8004028:	4632      	mov	r2, r6
 800402a:	4649      	mov	r1, r9
 800402c:	4640      	mov	r0, r8
 800402e:	6923      	ldr	r3, [r4, #16]
 8004030:	47d0      	blx	sl
 8004032:	3001      	adds	r0, #1
 8004034:	d0ad      	beq.n	8003f92 <_printf_i+0x15e>
 8004036:	6823      	ldr	r3, [r4, #0]
 8004038:	079b      	lsls	r3, r3, #30
 800403a:	d413      	bmi.n	8004064 <_printf_i+0x230>
 800403c:	68e0      	ldr	r0, [r4, #12]
 800403e:	9b03      	ldr	r3, [sp, #12]
 8004040:	4298      	cmp	r0, r3
 8004042:	bfb8      	it	lt
 8004044:	4618      	movlt	r0, r3
 8004046:	e7a6      	b.n	8003f96 <_printf_i+0x162>
 8004048:	2301      	movs	r3, #1
 800404a:	4632      	mov	r2, r6
 800404c:	4649      	mov	r1, r9
 800404e:	4640      	mov	r0, r8
 8004050:	47d0      	blx	sl
 8004052:	3001      	adds	r0, #1
 8004054:	d09d      	beq.n	8003f92 <_printf_i+0x15e>
 8004056:	3501      	adds	r5, #1
 8004058:	68e3      	ldr	r3, [r4, #12]
 800405a:	9903      	ldr	r1, [sp, #12]
 800405c:	1a5b      	subs	r3, r3, r1
 800405e:	42ab      	cmp	r3, r5
 8004060:	dcf2      	bgt.n	8004048 <_printf_i+0x214>
 8004062:	e7eb      	b.n	800403c <_printf_i+0x208>
 8004064:	2500      	movs	r5, #0
 8004066:	f104 0619 	add.w	r6, r4, #25
 800406a:	e7f5      	b.n	8004058 <_printf_i+0x224>
 800406c:	08005a7d 	.word	0x08005a7d
 8004070:	08005a8e 	.word	0x08005a8e

08004074 <memmove>:
 8004074:	4288      	cmp	r0, r1
 8004076:	b510      	push	{r4, lr}
 8004078:	eb01 0402 	add.w	r4, r1, r2
 800407c:	d902      	bls.n	8004084 <memmove+0x10>
 800407e:	4284      	cmp	r4, r0
 8004080:	4623      	mov	r3, r4
 8004082:	d807      	bhi.n	8004094 <memmove+0x20>
 8004084:	1e43      	subs	r3, r0, #1
 8004086:	42a1      	cmp	r1, r4
 8004088:	d008      	beq.n	800409c <memmove+0x28>
 800408a:	f811 2b01 	ldrb.w	r2, [r1], #1
 800408e:	f803 2f01 	strb.w	r2, [r3, #1]!
 8004092:	e7f8      	b.n	8004086 <memmove+0x12>
 8004094:	4601      	mov	r1, r0
 8004096:	4402      	add	r2, r0
 8004098:	428a      	cmp	r2, r1
 800409a:	d100      	bne.n	800409e <memmove+0x2a>
 800409c:	bd10      	pop	{r4, pc}
 800409e:	f813 4d01 	ldrb.w	r4, [r3, #-1]!
 80040a2:	f802 4d01 	strb.w	r4, [r2, #-1]!
 80040a6:	e7f7      	b.n	8004098 <memmove+0x24>

080040a8 <_sbrk_r>:
 80040a8:	b538      	push	{r3, r4, r5, lr}
 80040aa:	2300      	movs	r3, #0
 80040ac:	4d05      	ldr	r5, [pc, #20]	@ (80040c4 <_sbrk_r+0x1c>)
 80040ae:	4604      	mov	r4, r0
 80040b0:	4608      	mov	r0, r1
 80040b2:	602b      	str	r3, [r5, #0]
 80040b4:	f7fc fed8 	bl	8000e68 <_sbrk>
 80040b8:	1c43      	adds	r3, r0, #1
 80040ba:	d102      	bne.n	80040c2 <_sbrk_r+0x1a>
 80040bc:	682b      	ldr	r3, [r5, #0]
 80040be:	b103      	cbz	r3, 80040c2 <_sbrk_r+0x1a>
 80040c0:	6023      	str	r3, [r4, #0]
 80040c2:	bd38      	pop	{r3, r4, r5, pc}
 80040c4:	20001b60 	.word	0x20001b60

080040c8 <memchr>:
 80040c8:	4603      	mov	r3, r0
 80040ca:	b510      	push	{r4, lr}
 80040cc:	b2c9      	uxtb	r1, r1
 80040ce:	4402      	add	r2, r0
 80040d0:	4293      	cmp	r3, r2
 80040d2:	4618      	mov	r0, r3
 80040d4:	d101      	bne.n	80040da <memchr+0x12>
 80040d6:	2000      	movs	r0, #0
 80040d8:	e003      	b.n	80040e2 <memchr+0x1a>
 80040da:	7804      	ldrb	r4, [r0, #0]
 80040dc:	3301      	adds	r3, #1
 80040de:	428c      	cmp	r4, r1
 80040e0:	d1f6      	bne.n	80040d0 <memchr+0x8>
 80040e2:	bd10      	pop	{r4, pc}

080040e4 <_realloc_r>:
 80040e4:	e92d 41f0 	stmdb	sp!, {r4, r5, r6, r7, r8, lr}
 80040e8:	4680      	mov	r8, r0
 80040ea:	4615      	mov	r5, r2
 80040ec:	460c      	mov	r4, r1
 80040ee:	b921      	cbnz	r1, 80040fa <_realloc_r+0x16>
 80040f0:	4611      	mov	r1, r2
 80040f2:	e8bd 41f0 	ldmia.w	sp!, {r4, r5, r6, r7, r8, lr}
 80040f6:	f7ff bc47 	b.w	8003988 <_malloc_r>
 80040fa:	b92a      	cbnz	r2, 8004108 <_realloc_r+0x24>
 80040fc:	f7ff fbda 	bl	80038b4 <_free_r>
 8004100:	2400      	movs	r4, #0
 8004102:	4620      	mov	r0, r4
 8004104:	e8bd 81f0 	ldmia.w	sp!, {r4, r5, r6, r7, r8, pc}
 8004108:	f000 f81a 	bl	8004140 <_malloc_usable_size_r>
 800410c:	4285      	cmp	r5, r0
 800410e:	4606      	mov	r6, r0
 8004110:	d802      	bhi.n	8004118 <_realloc_r+0x34>
 8004112:	ebb5 0f50 	cmp.w	r5, r0, lsr #1
 8004116:	d8f4      	bhi.n	8004102 <_realloc_r+0x1e>
 8004118:	4629      	mov	r1, r5
 800411a:	4640      	mov	r0, r8
 800411c:	f7ff fc34 	bl	8003988 <_malloc_r>
 8004120:	4607      	mov	r7, r0
 8004122:	2800      	cmp	r0, #0
 8004124:	d0ec      	beq.n	8004100 <_realloc_r+0x1c>
 8004126:	42b5      	cmp	r5, r6
 8004128:	462a      	mov	r2, r5
 800412a:	4621      	mov	r1, r4
 800412c:	bf28      	it	cs
 800412e:	4632      	movcs	r2, r6
 8004130:	f7ff fbb2 	bl	8003898 <memcpy>
 8004134:	4621      	mov	r1, r4
 8004136:	4640      	mov	r0, r8
 8004138:	f7ff fbbc 	bl	80038b4 <_free_r>
 800413c:	463c      	mov	r4, r7
 800413e:	e7e0      	b.n	8004102 <_realloc_r+0x1e>

08004140 <_malloc_usable_size_r>:
 8004140:	f851 3c04 	ldr.w	r3, [r1, #-4]
 8004144:	1f18      	subs	r0, r3, #4
 8004146:	2b00      	cmp	r3, #0
 8004148:	bfbc      	itt	lt
 800414a:	580b      	ldrlt	r3, [r1, r0]
 800414c:	18c0      	addlt	r0, r0, r3
 800414e:	4770      	bx	lr

08004150 <_init>:
 8004150:	b5f8      	push	{r3, r4, r5, r6, r7, lr}
 8004152:	bf00      	nop
 8004154:	bcf8      	pop	{r3, r4, r5, r6, r7}
 8004156:	bc08      	pop	{r3}
 8004158:	469e      	mov	lr, r3
 800415a:	4770      	bx	lr

0800415c <_fini>:
 800415c:	b5f8      	push	{r3, r4, r5, r6, r7, lr}
 800415e:	bf00      	nop
 8004160:	bcf8      	pop	{r3, r4, r5, r6, r7}
 8004162:	bc08      	pop	{r3}
 8004164:	469e      	mov	lr, r3
 8004166:	4770      	bx	lr
